(iNeural
Neural
p0
(dp1
S'trfFunc'
p2
(lp3
S'tansig'
p4
aS'tansig'
p5
asS'b'
p6
(lp7
(lp8
F1.6190393726498622
aF0.015445112138873788
aF2.697365529904631
aa(lp9
F0.06807205134564763
aasS'perf_tst'
p10
(idefines
Performance
p11
(dp12
S'spVec'
p13
(lp14
F0.0
aF1.0
aF1.0
aF1.0
aF1.0
aF1.0
aF1.0
aF1.0
aF1.0
aF1.0
aF1.0
aF1.0
aF1.0
aF1.0
aF1.0
aF1.0
aF1.0
aF1.0
aF1.0
aF1.0
aF1.0
aF1.0
aF1.0
aF1.0
aF1.0
aF1.0
aF1.0
aF1.0
aF1.0
aF1.0
aF1.0
aF1.0
aF1.0
aF1.0
aF1.0
aF1.0
aF1.0
aF1.0
aF1.0
aF1.0
aF1.0
aF1.0
aF1.0
aF1.0
aF1.0
aF1.0
aF1.0
aF1.0
aF1.0
aF1.0
aF1.0
aF1.0
aF1.0
aF1.0
aF1.0
aF1.0
aF1.0
aF1.0
aF1.0
aF1.0
aF1.0
aF1.0
aF1.0
aF1.0
aF1.0
aF1.0
aF1.0
aF1.0
aF1.0
aF1.0
aF1.0
aF1.0
aF1.0
aF1.0
aF1.0
aF1.0
aF1.0
aF1.0
aF1.0
aF1.0
aF1.0
aF1.0
aF1.0
aF1.0
aF1.0
aF1.0
aF1.0
aF1.0
aF1.0
aF1.0
aF1.0
aF1.0
aF1.0
aF1.0
aF1.0
aF1.0
aF1.0
aF1.0
aF1.0
aF1.0
aF1.0
aF1.0
aF1.0
aF1.0
aF1.0
aF1.0
aF1.0
aF1.0
aF1.0
aF1.0
aF1.0
aF1.0
aF1.0
aF1.0
aF1.0
aF1.0
aF1.0
aF1.0
aF1.0
aF1.0
aF1.0
aF1.0
aF1.0
aF1.0
aF1.0
aF1.0
aF1.0
aF1.0
aF1.0
aF1.0
aF1.0
aF1.0
aF1.0
aF1.0
aF1.0
aF1.0
aF1.0
aF1.0
aF1.0
aF1.0
aF1.0
aF1.0
aF1.0
aF1.0
aF1.0
aF1.0
aF1.0
aF1.0
aF1.0
aF1.0
aF1.0
aF1.0
aF1.0
aF1.0
aF1.0
aF1.0
aF1.0
aF1.0
aF1.0
aF1.0
aF1.0
aF1.0
aF1.0
aF1.0
aF1.0
aF1.0
aF1.0
aF1.0
aF1.0
aF1.0
aF1.0
aF1.0
aF1.0
aF1.0
aF1.0
aF1.0
aF1.0
aF1.0
aF1.0
aF1.0
aF1.0
aF1.0
aF1.0
aF1.0
aF1.0
aF1.0
aF1.0
aF1.0
aF1.0
aF1.0
aF1.0
aF1.0
aF1.0
aF1.0
aF1.0
aF1.0
aF1.0
aF1.0
aF1.0
aF1.0
aF1.0
aF1.0
aF1.0
aF1.0
aF1.0
aF1.0
aF1.0
aF1.0
aF1.0
aF1.0
aF1.0
aF1.0
aF1.0
aF1.0
aF1.0
aF1.0
aF1.0
aF1.0
aF1.0
aF1.0
aF1.0
aF1.0
aF1.0
aF1.0
aF1.0
aF1.0
aF1.0
aF1.0
aF1.0
aF1.0
aF1.0
aF1.0
aF1.0
aF1.0
aF1.0
aF1.0
aF1.0
aF1.0
aF1.0
aF1.0
aF1.0
aF1.0
aF1.0
aF1.0
aF1.0
aF1.0
aF1.0
aF1.0
aF1.0
aF1.0
aF1.0
aF1.0
aF1.0
aF1.0
aF1.0
aF1.0
aF1.0
aF1.0
aF1.0
aF1.0
aF1.0
aF1.0
aF1.0
aF1.0
aF1.0
aF1.0
aF1.0
aF1.0
aF1.0
aF1.0
aF1.0
aF1.0
aF1.0
aF1.0
aF1.0
aF1.0
aF1.0
aF1.0
aF1.0
aF1.0
aF1.0
aF1.0
aF1.0
aF1.0
aF1.0
aF1.0
aF1.0
aF1.0
aF1.0
aF1.0
aF1.0
aF1.0
aF1.0
aF1.0
aF1.0
aF1.0
aF1.0
aF1.0
aF1.0
aF1.0
aF1.0
aF1.0
aF1.0
aF1.0
aF1.0
aF1.0
aF1.0
aF1.0
aF1.0
aF1.0
aF1.0
aF1.0
aF1.0
aF1.0
aF1.0
aF1.0
aF1.0
aF1.0
aF1.0
aF1.0
aF1.0
aF1.0
aF1.0
aF1.0
aF1.0
aF1.0
aF1.0
aF1.0
aF1.0
aF1.0
aF1.0
aF1.0
aF1.0
aF1.0
aF1.0
aF1.0
aF1.0
aF1.0
aF1.0
aF1.0
aF1.0
aF1.0
aF1.0
aF1.0
aF1.0
aF1.0
aF1.0
aF1.0
aF1.0
aF1.0
aF1.0
aF1.0
aF1.0
aF1.0
aF1.0
aF1.0
aF1.0
aF1.0
aF1.0
aF1.0
aF1.0
aF1.0
aF1.0
aF1.0
aF1.0
aF1.0
aF1.0
aF1.0
aF1.0
aF1.0
aF1.0
aF1.0
aF1.0
aF1.0
aF1.0
aF1.0
aF1.0
aF1.0
aF1.0
aF1.0
aF1.0
aF1.0
aF1.0
aF1.0
aF1.0
aF1.0
aF1.0
aF1.0
aF1.0
aF1.0
aF1.0
aF1.0
aF1.0
aF1.0
aF1.0
aF1.0
aF1.0
aF1.0
aF1.0
aF1.0
aF1.0
aF1.0
aF1.0
aF1.0
aF1.0
aF1.0
aF1.0
aF1.0
aF1.0
aF1.0
aF1.0
aF1.0
aF1.0
aF1.0
aF1.0
aF1.0
aF1.0
aF1.0
aF1.0
aF1.0
aF1.0
aF1.0
aF1.0
aF1.0
aF1.0
aF1.0
aF1.0
aF1.0
aF1.0
aF1.0
aF1.0
aF1.0
aF1.0
aF1.0
aF1.0
aF1.0
aF1.0
aF1.0
aF1.0
aF1.0
aF1.0
aF1.0
aF1.0
aF1.0
aF1.0
aF1.0
aF1.0
aF1.0
aF1.0
aF1.0
aF1.0
aF1.0
aF1.0
aF1.0
aF1.0
aF1.0
aF1.0
aF1.0
aF1.0
aF1.0
aF1.0
aF1.0
aF1.0
aF1.0
aF1.0
aF1.0
aF1.0
aF1.0
aF1.0
aF1.0
aF1.0
aF1.0
aF1.0
aF1.0
aF1.0
aF1.0
aF1.0
aF1.0
aF1.0
aF1.0
aF1.0
aF1.0
aF1.0
aF1.0
aF1.0
aF1.0
aF1.0
aF1.0
aF1.0
aF1.0
aF1.0
aF1.0
aF1.0
aF1.0
aF1.0
aF1.0
aF1.0
aF1.0
aF1.0
aF1.0
aF1.0
aF1.0
aF1.0
aF1.0
aF1.0
aF1.0
aF1.0
aF1.0
aF1.0
aF1.0
aF1.0
aF1.0
aF1.0
aF1.0
aF1.0
aF1.0
aF1.0
aF1.0
aF1.0
aF1.0
aF1.0
aF1.0
aF1.0
aF1.0
aF1.0
aF1.0
aF1.0
aF1.0
aF1.0
aF1.0
aF1.0
aF1.0
aF1.0
aF1.0
aF1.0
aF1.0
aF1.0
aF1.0
aF1.0
aF1.0
aF1.0
aF1.0
aF1.0
aF1.0
aF1.0
aF1.0
aF1.0
aF1.0
aF1.0
aF1.0
aF1.0
aF1.0
aF1.0
aF1.0
aF1.0
aF1.0
aF1.0
aF1.0
aF1.0
aF1.0
aF1.0
aF1.0
aF1.0
aF1.0
aF1.0
aF1.0
aF1.0
aF1.0
aF1.0
aF1.0
aF1.0
aF1.0
aF1.0
aF1.0
aF1.0
aF1.0
aF1.0
aF1.0
aF1.0
aF1.0
aF1.0
aF1.0
aF1.0
aF1.0
aF1.0
aF1.0
aF1.0
aF1.0
aF1.0
aF1.0
aF1.0
aF1.0
aF1.0
aF1.0
aF1.0
aF1.0
aF1.0
aF1.0
aF1.0
aF1.0
aF1.0
aF1.0
aF1.0
aF1.0
aF1.0
aF1.0
aF1.0
aF1.0
aF1.0
aF1.0
aF1.0
aF1.0
aF1.0
aF1.0
aF1.0
aF1.0
aF1.0
aF1.0
aF1.0
aF1.0
aF1.0
aF1.0
aF1.0
aF1.0
aF1.0
aF1.0
aF1.0
aF1.0
aF1.0
aF1.0
aF1.0
aF1.0
aF1.0
aF1.0
aF1.0
aF1.0
aF1.0
aF1.0
aF1.0
aF1.0
aF1.0
aF1.0
aF1.0
aF1.0
aF1.0
aF1.0
aF1.0
aF1.0
aF1.0
aF1.0
aF1.0
aF1.0
aF1.0
aF1.0
aF1.0
aF1.0
aF1.0
aF1.0
aF1.0
aF1.0
aF1.0
aF1.0
aF1.0
aF1.0
aF1.0
aF1.0
aF1.0
aF1.0
aF1.0
aF1.0
aF1.0
aF1.0
aF1.0
aF1.0
aF1.0
aF1.0
aF1.0
aF1.0
aF1.0
aF1.0
aF1.0
aF1.0
aF1.0
aF1.0
aF1.0
aF1.0
aF1.0
aF1.0
aF1.0
aF1.0
aF1.0
aF1.0
aF1.0
aF1.0
aF1.0
aF1.0
aF1.0
aF1.0
aF1.0
aF1.0
aF1.0
aF1.0
aF1.0
aF1.0
aF1.0
aF1.0
aF1.0
aF1.0
aF1.0
aF1.0
aF1.0
aF1.0
aF1.0
aF1.0
aF1.0
aF1.0
aF1.0
aF1.0
aF1.0
aF1.0
aF1.0
aF1.0
aF1.0
aF1.0
aF1.0
aF1.0
aF1.0
aF1.0
aF1.0
aF1.0
aF1.0
aF1.0
aF1.0
aF1.0
aF1.0
aF1.0
aF1.0
aF1.0
aF1.0
aF1.0
aF1.0
aF1.0
aF1.0
aF1.0
aF1.0
aF1.0
aF1.0
aF1.0
aF1.0
aF1.0
aF1.0
aF1.0
aF1.0
aF1.0
aF1.0
aF1.0
aF1.0
aF1.0
aF1.0
aF1.0
aF1.0
aF1.0
aF1.0
aF1.0
aF1.0
aF1.0
aF1.0
aF1.0
aF1.0
aF1.0
aF1.0
aF1.0
aF1.0
aF1.0
aF1.0
aF1.0
aF1.0
aF1.0
aF1.0
aF1.0
aF1.0
aF1.0
aF1.0
aF1.0
aF1.0
aF1.0
aF1.0
aF1.0
aF1.0
aF1.0
aF1.0
aF1.0
aF1.0
aF1.0
aF1.0
aF1.0
aF1.0
aF1.0
aF1.0
aF1.0
aF1.0
aF1.0
aF1.0
aF1.0
aF1.0
aF1.0
aF1.0
aF1.0
aF1.0
aF1.0
aF1.0
aF1.0
aF1.0
aF1.0
aF1.0
aF1.0
aF1.0
aF1.0
aF1.0
aF1.0
aF1.0
aF1.0
aF1.0
aF1.0
aF1.0
aF1.0
aF1.0
aF1.0
aF1.0
aF1.0
aF1.0
aF1.0
aF1.0
aF1.0
aF1.0
aF1.0
aF1.0
aF1.0
aF1.0
aF1.0
aF1.0
aF1.0
aF1.0
aF1.0
aF1.0
aF1.0
aF1.0
aF1.0
aF1.0
aF1.0
aF1.0
aF1.0
aF1.0
aF1.0
aF1.0
aF1.0
aF1.0
aF1.0
aF1.0
aF1.0
aF1.0
aF1.0
aF1.0
aF1.0
aF1.0
aF1.0
aF1.0
aF1.0
aF1.0
aF1.0
aF1.0
aF1.0
aF1.0
aF1.0
aF1.0
aF1.0
aF1.0
aF1.0
aF1.0
aF1.0
aF1.0
aF1.0
aF1.0
aF1.0
aF1.0
aF1.0
aF1.0
aF1.0
aF1.0
aF1.0
aF1.0
aF1.0
aF1.0
aF1.0
aF1.0
aF1.0
aF1.0
aF1.0
aF1.0
aF1.0
aF1.0
aF1.0
aF1.0
aF1.0
aF1.0
aF1.0
aF1.0
aF1.0
aF1.0
aF1.0
aF1.0
aF1.0
aF1.0
aF1.0
aF1.0
aF1.0
aF1.0
aF1.0
aF1.0
aF1.0
aF1.0
aF1.0
aF1.0
aF1.0
aF1.0
aF1.0
aF1.0
aF1.0
aF1.0
aF1.0
aF1.0
aF1.0
aF1.0
aF1.0
aF1.0
aF1.0
aF1.0
aF1.0
aF1.0
aF1.0
aF1.0
aF1.0
aF1.0
aF1.0
aF1.0
aF1.0
aF1.0
aF1.0
aF1.0
aF1.0
aF1.0
aF1.0
aF1.0
aF1.0
aF1.0
aF1.0
aF1.0
aF1.0
aF1.0
aF1.0
aF1.0
aF1.0
aF1.0
aF1.0
aF1.0
aF1.0
aF1.0
aF1.0
aF1.0
aF1.0
aF1.0
aF1.0
aF1.0
aF1.0
aF1.0
aF1.0
aF1.0
aF1.0
aF1.0
aF1.0
aF1.0
aF1.0
aF1.0
aF1.0
aF1.0
aF1.0
aF1.0
aF1.0
aF1.0
aF1.0
aF1.0
aF1.0
aF1.0
aF1.0
aF1.0
aF1.0
aF1.0
aF1.0
aF1.0
asS'cut'
p15
F-0.998
sS'sp'
p16
F1.0
sS'cutVec'
p17
(lp18
F-1.0
aF-0.998
aF-0.996
aF-0.994
aF-0.992
aF-0.99
aF-0.988
aF-0.986
aF-0.984
aF-0.982
aF-0.98
aF-0.978
aF-0.976
aF-0.974
aF-0.972
aF-0.97
aF-0.968
aF-0.966
aF-0.964
aF-0.962
aF-0.96
aF-0.958
aF-0.956
aF-0.954
aF-0.952
aF-0.95
aF-0.948
aF-0.946
aF-0.944
aF-0.942
aF-0.94
aF-0.938
aF-0.936
aF-0.934
aF-0.932
aF-0.93
aF-0.928
aF-0.926
aF-0.924
aF-0.922
aF-0.92
aF-0.918
aF-0.916
aF-0.914
aF-0.912
aF-0.91
aF-0.908
aF-0.906
aF-0.904
aF-0.902
aF-0.9
aF-0.898
aF-0.896
aF-0.894
aF-0.892
aF-0.89
aF-0.888
aF-0.886
aF-0.884
aF-0.882
aF-0.88
aF-0.878
aF-0.876
aF-0.874
aF-0.872
aF-0.87
aF-0.868
aF-0.866
aF-0.864
aF-0.862
aF-0.86
aF-0.858
aF-0.856
aF-0.854
aF-0.852
aF-0.85
aF-0.848
aF-0.846
aF-0.844
aF-0.842
aF-0.84
aF-0.838
aF-0.836
aF-0.834
aF-0.832
aF-0.83
aF-0.828
aF-0.826
aF-0.824
aF-0.822
aF-0.82
aF-0.818
aF-0.816
aF-0.814
aF-0.812
aF-0.81
aF-0.808
aF-0.806
aF-0.804
aF-0.802
aF-0.8
aF-0.798
aF-0.796
aF-0.794
aF-0.792
aF-0.79
aF-0.788
aF-0.786
aF-0.784
aF-0.782
aF-0.78
aF-0.778
aF-0.776
aF-0.774
aF-0.772
aF-0.77
aF-0.768
aF-0.766
aF-0.764
aF-0.762
aF-0.76
aF-0.758
aF-0.756
aF-0.754
aF-0.752
aF-0.75
aF-0.748
aF-0.746
aF-0.744
aF-0.742
aF-0.74
aF-0.738
aF-0.736
aF-0.734
aF-0.732
aF-0.73
aF-0.728
aF-0.726
aF-0.724
aF-0.722
aF-0.72
aF-0.718
aF-0.716
aF-0.714
aF-0.712
aF-0.71
aF-0.708
aF-0.706
aF-0.704
aF-0.702
aF-0.7
aF-0.698
aF-0.696
aF-0.694
aF-0.692
aF-0.69
aF-0.688
aF-0.686
aF-0.684
aF-0.682
aF-0.68
aF-0.678
aF-0.676
aF-0.674
aF-0.672
aF-0.67
aF-0.668
aF-0.666
aF-0.664
aF-0.662
aF-0.66
aF-0.658
aF-0.656
aF-0.654
aF-0.652
aF-0.65
aF-0.648
aF-0.646
aF-0.644
aF-0.642
aF-0.64
aF-0.638
aF-0.636
aF-0.634
aF-0.632
aF-0.63
aF-0.628
aF-0.626
aF-0.624
aF-0.622
aF-0.62
aF-0.618
aF-0.616
aF-0.614
aF-0.612
aF-0.61
aF-0.608
aF-0.606
aF-0.604
aF-0.602
aF-0.6
aF-0.598
aF-0.596
aF-0.594
aF-0.592
aF-0.59
aF-0.588
aF-0.586
aF-0.584
aF-0.582
aF-0.58
aF-0.578
aF-0.576
aF-0.574
aF-0.572
aF-0.57
aF-0.568
aF-0.566
aF-0.564
aF-0.562
aF-0.56
aF-0.558
aF-0.556
aF-0.554
aF-0.552
aF-0.55
aF-0.548
aF-0.546
aF-0.544
aF-0.542
aF-0.54
aF-0.538
aF-0.536
aF-0.534
aF-0.532
aF-0.53
aF-0.528
aF-0.526
aF-0.524
aF-0.522
aF-0.52
aF-0.518
aF-0.516
aF-0.514
aF-0.512
aF-0.51
aF-0.508
aF-0.506
aF-0.504
aF-0.502
aF-0.5
aF-0.498
aF-0.496
aF-0.494
aF-0.492
aF-0.49
aF-0.488
aF-0.486
aF-0.484
aF-0.482
aF-0.48
aF-0.478
aF-0.476
aF-0.474
aF-0.472
aF-0.47
aF-0.468
aF-0.466
aF-0.464
aF-0.462
aF-0.46
aF-0.458
aF-0.456
aF-0.454
aF-0.452
aF-0.45
aF-0.448
aF-0.446
aF-0.444
aF-0.442
aF-0.44
aF-0.438
aF-0.436
aF-0.434
aF-0.432
aF-0.43
aF-0.428
aF-0.426
aF-0.424
aF-0.422
aF-0.42
aF-0.418
aF-0.416
aF-0.414
aF-0.412
aF-0.41
aF-0.408
aF-0.406
aF-0.404
aF-0.402
aF-0.4
aF-0.398
aF-0.396
aF-0.394
aF-0.392
aF-0.39
aF-0.388
aF-0.386
aF-0.384
aF-0.382
aF-0.38
aF-0.378
aF-0.376
aF-0.374
aF-0.372
aF-0.37
aF-0.368
aF-0.366
aF-0.364
aF-0.362
aF-0.36
aF-0.358
aF-0.356
aF-0.354
aF-0.352
aF-0.35
aF-0.348
aF-0.346
aF-0.344
aF-0.342
aF-0.34
aF-0.338
aF-0.336
aF-0.334
aF-0.332
aF-0.33
aF-0.328
aF-0.326
aF-0.324
aF-0.322
aF-0.32
aF-0.318
aF-0.316
aF-0.314
aF-0.312
aF-0.31
aF-0.308
aF-0.306
aF-0.304
aF-0.302
aF-0.3
aF-0.298
aF-0.296
aF-0.294
aF-0.292
aF-0.29
aF-0.288
aF-0.286
aF-0.284
aF-0.282
aF-0.28
aF-0.278
aF-0.276
aF-0.274
aF-0.272
aF-0.27
aF-0.268
aF-0.266
aF-0.264
aF-0.262
aF-0.26
aF-0.258
aF-0.256
aF-0.254
aF-0.252
aF-0.25
aF-0.248
aF-0.246
aF-0.244
aF-0.242
aF-0.24
aF-0.238
aF-0.236
aF-0.234
aF-0.232
aF-0.23
aF-0.228
aF-0.226
aF-0.224
aF-0.222
aF-0.22
aF-0.218
aF-0.216
aF-0.214
aF-0.212
aF-0.21
aF-0.208
aF-0.206
aF-0.204
aF-0.202
aF-0.2
aF-0.198
aF-0.196
aF-0.194
aF-0.192
aF-0.19
aF-0.188
aF-0.186
aF-0.184
aF-0.182
aF-0.18
aF-0.178
aF-0.176
aF-0.174
aF-0.172
aF-0.17
aF-0.168
aF-0.166
aF-0.164
aF-0.162
aF-0.16
aF-0.158
aF-0.156
aF-0.154
aF-0.152
aF-0.15
aF-0.148
aF-0.146
aF-0.144
aF-0.142
aF-0.14
aF-0.138
aF-0.136
aF-0.134
aF-0.132
aF-0.13
aF-0.128
aF-0.126
aF-0.124
aF-0.122
aF-0.12
aF-0.118
aF-0.116
aF-0.114
aF-0.112
aF-0.11
aF-0.108
aF-0.106
aF-0.104
aF-0.102
aF-0.1
aF-0.098
aF-0.096
aF-0.094
aF-0.092
aF-0.09
aF-0.088
aF-0.086
aF-0.084
aF-0.082
aF-0.08
aF-0.078
aF-0.076
aF-0.074
aF-0.072
aF-0.07
aF-0.068
aF-0.066
aF-0.064
aF-0.062
aF-0.06
aF-0.058
aF-0.056
aF-0.054
aF-0.052
aF-0.05
aF-0.048
aF-0.046
aF-0.044
aF-0.042
aF-0.04
aF-0.038
aF-0.036
aF-0.034
aF-0.032
aF-0.03
aF-0.028
aF-0.026
aF-0.024
aF-0.022
aF-0.02
aF-0.018
aF-0.016
aF-0.014
aF-0.012
aF-0.01
aF-0.008
aF-0.006
aF-0.004
aF-0.002
aF0.0
aF0.002
aF0.004
aF0.006
aF0.008
aF0.01
aF0.012
aF0.014
aF0.016
aF0.018
aF0.02
aF0.022
aF0.024
aF0.026
aF0.028
aF0.03
aF0.032
aF0.034
aF0.036
aF0.038
aF0.04
aF0.042
aF0.044
aF0.046
aF0.048
aF0.05
aF0.052
aF0.054
aF0.056
aF0.058
aF0.06
aF0.062
aF0.064
aF0.066
aF0.068
aF0.07
aF0.072
aF0.074
aF0.076
aF0.078
aF0.08
aF0.082
aF0.084
aF0.086
aF0.088
aF0.09
aF0.092
aF0.094
aF0.096
aF0.098
aF0.1
aF0.102
aF0.104
aF0.106
aF0.108
aF0.11
aF0.112
aF0.114
aF0.116
aF0.118
aF0.12
aF0.122
aF0.124
aF0.126
aF0.128
aF0.13
aF0.132
aF0.134
aF0.136
aF0.138
aF0.14
aF0.142
aF0.144
aF0.146
aF0.148
aF0.15
aF0.152
aF0.154
aF0.156
aF0.158
aF0.16
aF0.162
aF0.164
aF0.166
aF0.168
aF0.17
aF0.172
aF0.174
aF0.176
aF0.178
aF0.18
aF0.182
aF0.184
aF0.186
aF0.188
aF0.19
aF0.192
aF0.194
aF0.196
aF0.198
aF0.2
aF0.202
aF0.204
aF0.206
aF0.208
aF0.21
aF0.212
aF0.214
aF0.216
aF0.218
aF0.22
aF0.222
aF0.224
aF0.226
aF0.228
aF0.23
aF0.232
aF0.234
aF0.236
aF0.238
aF0.24
aF0.242
aF0.244
aF0.246
aF0.248
aF0.25
aF0.252
aF0.254
aF0.256
aF0.258
aF0.26
aF0.262
aF0.264
aF0.266
aF0.268
aF0.27
aF0.272
aF0.274
aF0.276
aF0.278
aF0.28
aF0.282
aF0.284
aF0.286
aF0.288
aF0.29
aF0.292
aF0.294
aF0.296
aF0.298
aF0.3
aF0.302
aF0.304
aF0.306
aF0.308
aF0.31
aF0.312
aF0.314
aF0.316
aF0.318
aF0.32
aF0.322
aF0.324
aF0.326
aF0.328
aF0.33
aF0.332
aF0.334
aF0.336
aF0.338
aF0.34
aF0.342
aF0.344
aF0.346
aF0.348
aF0.35
aF0.352
aF0.354
aF0.356
aF0.358
aF0.36
aF0.362
aF0.364
aF0.366
aF0.368
aF0.37
aF0.372
aF0.374
aF0.376
aF0.378
aF0.38
aF0.382
aF0.384
aF0.386
aF0.388
aF0.39
aF0.392
aF0.394
aF0.396
aF0.398
aF0.4
aF0.402
aF0.404
aF0.406
aF0.408
aF0.41
aF0.412
aF0.414
aF0.416
aF0.418
aF0.42
aF0.422
aF0.424
aF0.426
aF0.428
aF0.43
aF0.432
aF0.434
aF0.436
aF0.438
aF0.44
aF0.442
aF0.444
aF0.446
aF0.448
aF0.45
aF0.452
aF0.454
aF0.456
aF0.458
aF0.46
aF0.462
aF0.464
aF0.466
aF0.468
aF0.47
aF0.472
aF0.474
aF0.476
aF0.478
aF0.48
aF0.482
aF0.484
aF0.486
aF0.488
aF0.49
aF0.492
aF0.494
aF0.496
aF0.498
aF0.5
aF0.502
aF0.504
aF0.506
aF0.508
aF0.51
aF0.512
aF0.514
aF0.516
aF0.518
aF0.52
aF0.522
aF0.524
aF0.526
aF0.528
aF0.53
aF0.532
aF0.534
aF0.536
aF0.538
aF0.54
aF0.542
aF0.544
aF0.546
aF0.548
aF0.55
aF0.552
aF0.554
aF0.556
aF0.558
aF0.56
aF0.562
aF0.564
aF0.566
aF0.568
aF0.57
aF0.572
aF0.574
aF0.576
aF0.578
aF0.58
aF0.582
aF0.584
aF0.586
aF0.588
aF0.59
aF0.592
aF0.594
aF0.596
aF0.598
aF0.6
aF0.602
aF0.604
aF0.606
aF0.608
aF0.61
aF0.612
aF0.614
aF0.616
aF0.618
aF0.62
aF0.622
aF0.624
aF0.626
aF0.628
aF0.63
aF0.632
aF0.634
aF0.636
aF0.638
aF0.64
aF0.642
aF0.644
aF0.646
aF0.648
aF0.65
aF0.652
aF0.654
aF0.656
aF0.658
aF0.66
aF0.662
aF0.664
aF0.666
aF0.668
aF0.67
aF0.672
aF0.674
aF0.676
aF0.678
aF0.68
aF0.682
aF0.684
aF0.686
aF0.688
aF0.69
aF0.692
aF0.694
aF0.696
aF0.698
aF0.7
aF0.702
aF0.704
aF0.706
aF0.708
aF0.71
aF0.712
aF0.714
aF0.716
aF0.718
aF0.72
aF0.722
aF0.724
aF0.726
aF0.728
aF0.73
aF0.732
aF0.734
aF0.736
aF0.738
aF0.74
aF0.742
aF0.744
aF0.746
aF0.748
aF0.75
aF0.752
aF0.754
aF0.756
aF0.758
aF0.76
aF0.762
aF0.764
aF0.766
aF0.768
aF0.77
aF0.772
aF0.774
aF0.776
aF0.778
aF0.78
aF0.782
aF0.784
aF0.786
aF0.788
aF0.79
aF0.792
aF0.794
aF0.796
aF0.798
aF0.8
aF0.802
aF0.804
aF0.806
aF0.808
aF0.81
aF0.812
aF0.814
aF0.816
aF0.818
aF0.82
aF0.822
aF0.824
aF0.826
aF0.828
aF0.83
aF0.832
aF0.834
aF0.836
aF0.838
aF0.84
aF0.842
aF0.844
aF0.846
aF0.848
aF0.85
aF0.852
aF0.854
aF0.856
aF0.858
aF0.86
aF0.862
aF0.864
aF0.866
aF0.868
aF0.87
aF0.872
aF0.874
aF0.876
aF0.878
aF0.88
aF0.882
aF0.884
aF0.886
aF0.888
aF0.89
aF0.892
aF0.894
aF0.896
aF0.898
aF0.9
aF0.902
aF0.904
aF0.906
aF0.908
aF0.91
aF0.912
aF0.914
aF0.916
aF0.918
aF0.92
aF0.922
aF0.924
aF0.926
aF0.928
aF0.93
aF0.932
aF0.934
aF0.936
aF0.938
aF0.94
aF0.942
aF0.944
aF0.946
aF0.948
aF0.95
aF0.952
aF0.954
aF0.956
aF0.958
aF0.96
aF0.962
aF0.964
aF0.966
aF0.968
aF0.97
aF0.972
aF0.974
aF0.976
aF0.978
aF0.98
aF0.982
aF0.984
aF0.986
aF0.988
aF0.99
aF0.992
aF0.994
aF0.996
asS'fa'
p19
I0
sS'pd'
p20
I1
sS'detVec'
p21
(lp22
I1
aI1
aI1
aI1
aI1
aI1
aI1
aI1
aI1
aI1
aI1
aI1
aI1
aI1
aI1
aI1
aI1
aI1
aI1
aI1
aI1
aI1
aI1
aI1
aI1
aI1
aI1
aI1
aI1
aI1
aI1
aI1
aI1
aI1
aI1
aI1
aI1
aI1
aI1
aI1
aI1
aI1
aI1
aI1
aI1
aI1
aI1
aI1
aI1
aI1
aI1
aI1
aI1
aI1
aI1
aI1
aI1
aI1
aI1
aI1
aI1
aI1
aI1
aI1
aI1
aI1
aI1
aI1
aI1
aI1
aI1
aI1
aI1
aI1
aI1
aI1
aI1
aI1
aI1
aI1
aI1
aI1
aI1
aI1
aI1
aI1
aI1
aI1
aI1
aI1
aI1
aI1
aI1
aI1
aI1
aI1
aI1
aI1
aI1
aI1
aI1
aI1
aI1
aI1
aI1
aI1
aI1
aI1
aI1
aI1
aI1
aI1
aI1
aI1
aI1
aI1
aI1
aI1
aI1
aI1
aI1
aI1
aI1
aI1
aI1
aI1
aI1
aI1
aI1
aI1
aI1
aI1
aI1
aI1
aI1
aI1
aI1
aI1
aI1
aI1
aI1
aI1
aI1
aI1
aI1
aI1
aI1
aI1
aI1
aI1
aI1
aI1
aI1
aI1
aI1
aI1
aI1
aI1
aI1
aI1
aI1
aI1
aI1
aI1
aI1
aI1
aI1
aI1
aI1
aI1
aI1
aI1
aI1
aI1
aI1
aI1
aI1
aI1
aI1
aI1
aI1
aI1
aI1
aI1
aI1
aI1
aI1
aI1
aI1
aI1
aI1
aI1
aI1
aI1
aI1
aI1
aI1
aI1
aI1
aI1
aI1
aI1
aI1
aI1
aI1
aI1
aI1
aI1
aI1
aI1
aI1
aI1
aI1
aI1
aI1
aI1
aI1
aI1
aI1
aI1
aI1
aI1
aI1
aI1
aI1
aI1
aI1
aI1
aI1
aI1
aI1
aI1
aI1
aI1
aI1
aI1
aI1
aI1
aI1
aI1
aI1
aI1
aI1
aI1
aI1
aI1
aI1
aI1
aI1
aI1
aI1
aI1
aI1
aI1
aI1
aI1
aI1
aI1
aI1
aI1
aI1
aI1
aI1
aI1
aI1
aI1
aI1
aI1
aI1
aI1
aI1
aI1
aI1
aI1
aI1
aI1
aI1
aI1
aI1
aI1
aI1
aI1
aI1
aI1
aI1
aI1
aI1
aI1
aI1
aI1
aI1
aI1
aI1
aI1
aI1
aI1
aI1
aI1
aI1
aI1
aI1
aI1
aI1
aI1
aI1
aI1
aI1
aI1
aI1
aI1
aI1
aI1
aI1
aI1
aI1
aI1
aI1
aI1
aI1
aI1
aI1
aI1
aI1
aI1
aI1
aI1
aI1
aI1
aI1
aI1
aI1
aI1
aI1
aI1
aI1
aI1
aI1
aI1
aI1
aI1
aI1
aI1
aI1
aI1
aI1
aI1
aI1
aI1
aI1
aI1
aI1
aI1
aI1
aI1
aI1
aI1
aI1
aI1
aI1
aI1
aI1
aI1
aI1
aI1
aI1
aI1
aI1
aI1
aI1
aI1
aI1
aI1
aI1
aI1
aI1
aI1
aI1
aI1
aI1
aI1
aI1
aI1
aI1
aI1
aI1
aI1
aI1
aI1
aI1
aI1
aI1
aI1
aI1
aI1
aI1
aI1
aI1
aI1
aI1
aI1
aI1
aI1
aI1
aI1
aI1
aI1
aI1
aI1
aI1
aI1
aI1
aI1
aI1
aI1
aI1
aI1
aI1
aI1
aI1
aI1
aI1
aI1
aI1
aI1
aI1
aI1
aI1
aI1
aI1
aI1
aI1
aI1
aI1
aI1
aI1
aI1
aI1
aI1
aI1
aI1
aI1
aI1
aI1
aI1
aI1
aI1
aI1
aI1
aI1
aI1
aI1
aI1
aI1
aI1
aI1
aI1
aI1
aI1
aI1
aI1
aI1
aI1
aI1
aI1
aI1
aI1
aI1
aI1
aI1
aI1
aI1
aI1
aI1
aI1
aI1
aI1
aI1
aI1
aI1
aI1
aI1
aI1
aI1
aI1
aI1
aI1
aI1
aI1
aI1
aI1
aI1
aI1
aI1
aI1
aI1
aI1
aI1
aI1
aI1
aI1
aI1
aI1
aI1
aI1
aI1
aI1
aI1
aI1
aI1
aI1
aI1
aI1
aI1
aI1
aI1
aI1
aI1
aI1
aI1
aI1
aI1
aI1
aI1
aI1
aI1
aI1
aI1
aI1
aI1
aI1
aI1
aI1
aI1
aI1
aI1
aI1
aI1
aI1
aI1
aI1
aI1
aI1
aI1
aI1
aI1
aI1
aI1
aI1
aI1
aI1
aI1
aI1
aI1
aI1
aI1
aI1
aI1
aI1
aI1
aI1
aI1
aI1
aI1
aI1
aI1
aI1
aI1
aI1
aI1
aI1
aI1
aI1
aI1
aI1
aI1
aI1
aI1
aI1
aI1
aI1
aI1
aI1
aI1
aI1
aI1
aI1
aI1
aI1
aI1
aI1
aI1
aI1
aI1
aI1
aI1
aI1
aI1
aI1
aI1
aI1
aI1
aI1
aI1
aI1
aI1
aI1
aI1
aI1
aI1
aI1
aI1
aI1
aI1
aI1
aI1
aI1
aI1
aI1
aI1
aI1
aI1
aI1
aI1
aI1
aI1
aI1
aI1
aI1
aI1
aI1
aI1
aI1
aI1
aI1
aI1
aI1
aI1
aI1
aI1
aI1
aI1
aI1
aI1
aI1
aI1
aI1
aI1
aI1
aI1
aI1
aI1
aI1
aI1
aI1
aI1
aI1
aI1
aI1
aI1
aI1
aI1
aI1
aI1
aI1
aI1
aI1
aI1
aI1
aI1
aI1
aI1
aI1
aI1
aI1
aI1
aI1
aI1
aI1
aI1
aI1
aI1
aI1
aI1
aI1
aI1
aI1
aI1
aI1
aI1
aI1
aI1
aI1
aI1
aI1
aI1
aI1
aI1
aI1
aI1
aI1
aI1
aI1
aI1
aI1
aI1
aI1
aI1
aI1
aI1
aI1
aI1
aI1
aI1
aI1
aI1
aI1
aI1
aI1
aI1
aI1
aI1
aI1
aI1
aI1
aI1
aI1
aI1
aI1
aI1
aI1
aI1
aI1
aI1
aI1
aI1
aI1
aI1
aI1
aI1
aI1
aI1
aI1
aI1
aI1
aI1
aI1
aI1
aI1
aI1
aI1
aI1
aI1
aI1
aI1
aI1
aI1
aI1
aI1
aI1
aI1
aI1
aI1
aI1
aI1
aI1
aI1
aI1
aI1
aI1
aI1
aI1
aI1
aI1
aI1
aI1
aI1
aI1
aI1
aI1
aI1
aI1
aI1
aI1
aI1
aI1
aI1
aI1
aI1
aI1
aI1
aI1
aI1
aI1
aI1
aI1
aI1
aI1
aI1
aI1
aI1
aI1
aI1
aI1
aI1
aI1
aI1
aI1
aI1
aI1
aI1
aI1
aI1
aI1
aI1
aI1
aI1
aI1
aI1
aI1
aI1
aI1
aI1
aI1
aI1
aI1
aI1
aI1
aI1
aI1
aI1
aI1
aI1
aI1
aI1
aI1
aI1
aI1
aI1
aI1
aI1
aI1
aI1
aI1
aI1
aI1
aI1
aI1
aI1
aI1
aI1
aI1
aI1
aI1
aI1
aI1
aI1
aI1
aI1
aI1
aI1
aI1
aI1
aI1
aI1
aI1
aI1
aI1
aI1
aI1
aI1
aI1
aI1
aI1
aI1
aI1
aI1
aI1
aI1
aI1
aI1
aI1
aI1
aI1
aI1
aI1
aI1
aI1
aI1
aI1
aI1
aI1
aI1
aI1
aI1
aI1
aI1
aI1
aI1
aI1
aI1
aI1
aI1
aI1
aI1
aI1
aI1
aI1
aI1
aI1
aI1
aI1
aI1
aI1
aI1
aI1
aI1
aI1
aI1
aI1
aI1
aI1
aI1
aI1
aI1
aI1
aI1
aI1
aI1
aI1
aI1
aI1
aI1
aI1
aI1
aI1
aI1
aI1
aI1
aI1
aI1
aI1
aI1
aI1
aI1
aI1
aI1
aI1
aI1
aI1
aI1
aI1
aI1
aI1
aI1
aI1
aI1
aI1
aI1
aI1
aI1
aI1
aI1
aI1
aI1
aI1
aI1
aI1
aI1
aI1
aI1
aI1
aI1
aI1
aI1
aI1
aI1
aI1
aI1
aI1
aI1
aI1
aI1
aI1
aI1
aI1
aI1
aI1
aI1
aI1
aI1
aI1
aI1
aI1
aI1
aI1
aI1
aI1
aI1
aI1
asS'faVec'
p23
(lp24
I1
aI0
aI0
aI0
aI0
aI0
aI0
aI0
aI0
aI0
aI0
aI0
aI0
aI0
aI0
aI0
aI0
aI0
aI0
aI0
aI0
aI0
aI0
aI0
aI0
aI0
aI0
aI0
aI0
aI0
aI0
aI0
aI0
aI0
aI0
aI0
aI0
aI0
aI0
aI0
aI0
aI0
aI0
aI0
aI0
aI0
aI0
aI0
aI0
aI0
aI0
aI0
aI0
aI0
aI0
aI0
aI0
aI0
aI0
aI0
aI0
aI0
aI0
aI0
aI0
aI0
aI0
aI0
aI0
aI0
aI0
aI0
aI0
aI0
aI0
aI0
aI0
aI0
aI0
aI0
aI0
aI0
aI0
aI0
aI0
aI0
aI0
aI0
aI0
aI0
aI0
aI0
aI0
aI0
aI0
aI0
aI0
aI0
aI0
aI0
aI0
aI0
aI0
aI0
aI0
aI0
aI0
aI0
aI0
aI0
aI0
aI0
aI0
aI0
aI0
aI0
aI0
aI0
aI0
aI0
aI0
aI0
aI0
aI0
aI0
aI0
aI0
aI0
aI0
aI0
aI0
aI0
aI0
aI0
aI0
aI0
aI0
aI0
aI0
aI0
aI0
aI0
aI0
aI0
aI0
aI0
aI0
aI0
aI0
aI0
aI0
aI0
aI0
aI0
aI0
aI0
aI0
aI0
aI0
aI0
aI0
aI0
aI0
aI0
aI0
aI0
aI0
aI0
aI0
aI0
aI0
aI0
aI0
aI0
aI0
aI0
aI0
aI0
aI0
aI0
aI0
aI0
aI0
aI0
aI0
aI0
aI0
aI0
aI0
aI0
aI0
aI0
aI0
aI0
aI0
aI0
aI0
aI0
aI0
aI0
aI0
aI0
aI0
aI0
aI0
aI0
aI0
aI0
aI0
aI0
aI0
aI0
aI0
aI0
aI0
aI0
aI0
aI0
aI0
aI0
aI0
aI0
aI0
aI0
aI0
aI0
aI0
aI0
aI0
aI0
aI0
aI0
aI0
aI0
aI0
aI0
aI0
aI0
aI0
aI0
aI0
aI0
aI0
aI0
aI0
aI0
aI0
aI0
aI0
aI0
aI0
aI0
aI0
aI0
aI0
aI0
aI0
aI0
aI0
aI0
aI0
aI0
aI0
aI0
aI0
aI0
aI0
aI0
aI0
aI0
aI0
aI0
aI0
aI0
aI0
aI0
aI0
aI0
aI0
aI0
aI0
aI0
aI0
aI0
aI0
aI0
aI0
aI0
aI0
aI0
aI0
aI0
aI0
aI0
aI0
aI0
aI0
aI0
aI0
aI0
aI0
aI0
aI0
aI0
aI0
aI0
aI0
aI0
aI0
aI0
aI0
aI0
aI0
aI0
aI0
aI0
aI0
aI0
aI0
aI0
aI0
aI0
aI0
aI0
aI0
aI0
aI0
aI0
aI0
aI0
aI0
aI0
aI0
aI0
aI0
aI0
aI0
aI0
aI0
aI0
aI0
aI0
aI0
aI0
aI0
aI0
aI0
aI0
aI0
aI0
aI0
aI0
aI0
aI0
aI0
aI0
aI0
aI0
aI0
aI0
aI0
aI0
aI0
aI0
aI0
aI0
aI0
aI0
aI0
aI0
aI0
aI0
aI0
aI0
aI0
aI0
aI0
aI0
aI0
aI0
aI0
aI0
aI0
aI0
aI0
aI0
aI0
aI0
aI0
aI0
aI0
aI0
aI0
aI0
aI0
aI0
aI0
aI0
aI0
aI0
aI0
aI0
aI0
aI0
aI0
aI0
aI0
aI0
aI0
aI0
aI0
aI0
aI0
aI0
aI0
aI0
aI0
aI0
aI0
aI0
aI0
aI0
aI0
aI0
aI0
aI0
aI0
aI0
aI0
aI0
aI0
aI0
aI0
aI0
aI0
aI0
aI0
aI0
aI0
aI0
aI0
aI0
aI0
aI0
aI0
aI0
aI0
aI0
aI0
aI0
aI0
aI0
aI0
aI0
aI0
aI0
aI0
aI0
aI0
aI0
aI0
aI0
aI0
aI0
aI0
aI0
aI0
aI0
aI0
aI0
aI0
aI0
aI0
aI0
aI0
aI0
aI0
aI0
aI0
aI0
aI0
aI0
aI0
aI0
aI0
aI0
aI0
aI0
aI0
aI0
aI0
aI0
aI0
aI0
aI0
aI0
aI0
aI0
aI0
aI0
aI0
aI0
aI0
aI0
aI0
aI0
aI0
aI0
aI0
aI0
aI0
aI0
aI0
aI0
aI0
aI0
aI0
aI0
aI0
aI0
aI0
aI0
aI0
aI0
aI0
aI0
aI0
aI0
aI0
aI0
aI0
aI0
aI0
aI0
aI0
aI0
aI0
aI0
aI0
aI0
aI0
aI0
aI0
aI0
aI0
aI0
aI0
aI0
aI0
aI0
aI0
aI0
aI0
aI0
aI0
aI0
aI0
aI0
aI0
aI0
aI0
aI0
aI0
aI0
aI0
aI0
aI0
aI0
aI0
aI0
aI0
aI0
aI0
aI0
aI0
aI0
aI0
aI0
aI0
aI0
aI0
aI0
aI0
aI0
aI0
aI0
aI0
aI0
aI0
aI0
aI0
aI0
aI0
aI0
aI0
aI0
aI0
aI0
aI0
aI0
aI0
aI0
aI0
aI0
aI0
aI0
aI0
aI0
aI0
aI0
aI0
aI0
aI0
aI0
aI0
aI0
aI0
aI0
aI0
aI0
aI0
aI0
aI0
aI0
aI0
aI0
aI0
aI0
aI0
aI0
aI0
aI0
aI0
aI0
aI0
aI0
aI0
aI0
aI0
aI0
aI0
aI0
aI0
aI0
aI0
aI0
aI0
aI0
aI0
aI0
aI0
aI0
aI0
aI0
aI0
aI0
aI0
aI0
aI0
aI0
aI0
aI0
aI0
aI0
aI0
aI0
aI0
aI0
aI0
aI0
aI0
aI0
aI0
aI0
aI0
aI0
aI0
aI0
aI0
aI0
aI0
aI0
aI0
aI0
aI0
aI0
aI0
aI0
aI0
aI0
aI0
aI0
aI0
aI0
aI0
aI0
aI0
aI0
aI0
aI0
aI0
aI0
aI0
aI0
aI0
aI0
aI0
aI0
aI0
aI0
aI0
aI0
aI0
aI0
aI0
aI0
aI0
aI0
aI0
aI0
aI0
aI0
aI0
aI0
aI0
aI0
aI0
aI0
aI0
aI0
aI0
aI0
aI0
aI0
aI0
aI0
aI0
aI0
aI0
aI0
aI0
aI0
aI0
aI0
aI0
aI0
aI0
aI0
aI0
aI0
aI0
aI0
aI0
aI0
aI0
aI0
aI0
aI0
aI0
aI0
aI0
aI0
aI0
aI0
aI0
aI0
aI0
aI0
aI0
aI0
aI0
aI0
aI0
aI0
aI0
aI0
aI0
aI0
aI0
aI0
aI0
aI0
aI0
aI0
aI0
aI0
aI0
aI0
aI0
aI0
aI0
aI0
aI0
aI0
aI0
aI0
aI0
aI0
aI0
aI0
aI0
aI0
aI0
aI0
aI0
aI0
aI0
aI0
aI0
aI0
aI0
aI0
aI0
aI0
aI0
aI0
aI0
aI0
aI0
aI0
aI0
aI0
aI0
aI0
aI0
aI0
aI0
aI0
aI0
aI0
aI0
aI0
aI0
aI0
aI0
aI0
aI0
aI0
aI0
aI0
aI0
aI0
aI0
aI0
aI0
aI0
aI0
aI0
aI0
aI0
aI0
aI0
aI0
aI0
aI0
aI0
aI0
aI0
aI0
aI0
aI0
aI0
aI0
aI0
aI0
aI0
aI0
aI0
aI0
aI0
aI0
aI0
aI0
aI0
aI0
aI0
aI0
aI0
aI0
aI0
aI0
aI0
aI0
aI0
aI0
aI0
aI0
aI0
aI0
aI0
aI0
aI0
aI0
aI0
aI0
aI0
aI0
aI0
aI0
aI0
aI0
aI0
aI0
aI0
aI0
aI0
aI0
aI0
aI0
aI0
aI0
aI0
aI0
aI0
aI0
aI0
aI0
aI0
aI0
aI0
aI0
aI0
aI0
aI0
aI0
aI0
aI0
aI0
aI0
aI0
aI0
aI0
aI0
aI0
aI0
aI0
aI0
aI0
aI0
aI0
aI0
aI0
aI0
aI0
aI0
aI0
aI0
aI0
aI0
aI0
aI0
aI0
aI0
aI0
aI0
aI0
aI0
aI0
aI0
aI0
aI0
aI0
aI0
aI0
aI0
aI0
aI0
aI0
aI0
aI0
aI0
aI0
aI0
aI0
aI0
aI0
aI0
aI0
aI0
aI0
aI0
aI0
aI0
aI0
aI0
aI0
aI0
aI0
aI0
aI0
aI0
aI0
aI0
aI0
aI0
aI0
aI0
aI0
aI0
asbsS'layerOutput'
p25
(lp26
(lp27
F5.0
aF3.3
aF1.4
aF0.2
aa(lp28
F0.929114660563851
aF0.9904700464969087
aF1.0
aa(lp29
F1.0
aasS'perf_sim'
p30
(idefines
Performance
p31
(dp32
g13
(lp33
F0.0
aF1.0
aF1.0
aF1.0
aF1.0
aF1.0
aF1.0
aF1.0
aF1.0
aF1.0
aF1.0
aF1.0
aF1.0
aF1.0
aF1.0
aF1.0
aF1.0
aF1.0
aF1.0
aF1.0
aF1.0
aF1.0
aF1.0
aF1.0
aF1.0
aF1.0
aF1.0
aF1.0
aF1.0
aF1.0
aF1.0
aF1.0
aF1.0
aF1.0
aF1.0
aF1.0
aF1.0
aF1.0
aF1.0
aF1.0
aF1.0
aF1.0
aF1.0
aF1.0
aF1.0
aF1.0
aF1.0
aF1.0
aF1.0
aF1.0
aF1.0
aF1.0
aF1.0
aF1.0
aF1.0
aF1.0
aF1.0
aF1.0
aF1.0
aF1.0
aF1.0
aF1.0
aF1.0
aF1.0
aF1.0
aF1.0
aF1.0
aF1.0
aF1.0
aF1.0
aF1.0
aF1.0
aF1.0
aF1.0
aF1.0
aF1.0
aF1.0
aF1.0
aF1.0
aF1.0
aF1.0
aF1.0
aF1.0
aF1.0
aF1.0
aF1.0
aF1.0
aF1.0
aF1.0
aF1.0
aF1.0
aF1.0
aF1.0
aF1.0
aF1.0
aF1.0
aF1.0
aF1.0
aF1.0
aF1.0
aF1.0
aF1.0
aF1.0
aF1.0
aF1.0
aF1.0
aF1.0
aF1.0
aF1.0
aF1.0
aF1.0
aF1.0
aF1.0
aF1.0
aF1.0
aF1.0
aF1.0
aF1.0
aF1.0
aF1.0
aF1.0
aF1.0
aF1.0
aF1.0
aF1.0
aF1.0
aF1.0
aF1.0
aF1.0
aF1.0
aF1.0
aF1.0
aF1.0
aF1.0
aF1.0
aF1.0
aF1.0
aF1.0
aF1.0
aF1.0
aF1.0
aF1.0
aF1.0
aF1.0
aF1.0
aF1.0
aF1.0
aF1.0
aF1.0
aF1.0
aF1.0
aF1.0
aF1.0
aF1.0
aF1.0
aF1.0
aF1.0
aF1.0
aF1.0
aF1.0
aF1.0
aF1.0
aF1.0
aF1.0
aF1.0
aF1.0
aF1.0
aF1.0
aF1.0
aF1.0
aF1.0
aF1.0
aF1.0
aF1.0
aF1.0
aF1.0
aF1.0
aF1.0
aF1.0
aF1.0
aF1.0
aF1.0
aF1.0
aF1.0
aF1.0
aF1.0
aF1.0
aF1.0
aF1.0
aF1.0
aF1.0
aF1.0
aF1.0
aF1.0
aF1.0
aF1.0
aF1.0
aF1.0
aF1.0
aF1.0
aF1.0
aF1.0
aF1.0
aF1.0
aF1.0
aF1.0
aF1.0
aF1.0
aF1.0
aF1.0
aF1.0
aF1.0
aF1.0
aF1.0
aF1.0
aF1.0
aF1.0
aF1.0
aF1.0
aF1.0
aF1.0
aF1.0
aF1.0
aF1.0
aF1.0
aF1.0
aF1.0
aF1.0
aF1.0
aF1.0
aF1.0
aF1.0
aF1.0
aF1.0
aF1.0
aF1.0
aF1.0
aF1.0
aF1.0
aF1.0
aF1.0
aF1.0
aF1.0
aF1.0
aF1.0
aF1.0
aF1.0
aF1.0
aF1.0
aF1.0
aF1.0
aF1.0
aF1.0
aF1.0
aF1.0
aF1.0
aF1.0
aF1.0
aF1.0
aF1.0
aF1.0
aF1.0
aF1.0
aF1.0
aF1.0
aF1.0
aF1.0
aF1.0
aF1.0
aF1.0
aF1.0
aF1.0
aF1.0
aF1.0
aF1.0
aF1.0
aF1.0
aF1.0
aF1.0
aF1.0
aF1.0
aF1.0
aF1.0
aF1.0
aF1.0
aF1.0
aF1.0
aF1.0
aF1.0
aF1.0
aF1.0
aF1.0
aF1.0
aF1.0
aF1.0
aF1.0
aF1.0
aF1.0
aF1.0
aF1.0
aF1.0
aF1.0
aF1.0
aF1.0
aF1.0
aF1.0
aF1.0
aF1.0
aF1.0
aF1.0
aF1.0
aF1.0
aF1.0
aF1.0
aF1.0
aF1.0
aF1.0
aF1.0
aF1.0
aF1.0
aF1.0
aF1.0
aF1.0
aF1.0
aF1.0
aF1.0
aF1.0
aF1.0
aF1.0
aF1.0
aF1.0
aF1.0
aF1.0
aF1.0
aF1.0
aF1.0
aF1.0
aF1.0
aF1.0
aF1.0
aF1.0
aF1.0
aF1.0
aF1.0
aF1.0
aF1.0
aF1.0
aF1.0
aF1.0
aF1.0
aF1.0
aF1.0
aF1.0
aF1.0
aF1.0
aF1.0
aF1.0
aF1.0
aF1.0
aF1.0
aF1.0
aF1.0
aF1.0
aF1.0
aF1.0
aF1.0
aF1.0
aF1.0
aF1.0
aF1.0
aF1.0
aF1.0
aF1.0
aF1.0
aF1.0
aF1.0
aF1.0
aF1.0
aF1.0
aF1.0
aF1.0
aF1.0
aF1.0
aF1.0
aF1.0
aF1.0
aF1.0
aF1.0
aF1.0
aF1.0
aF1.0
aF1.0
aF1.0
aF1.0
aF1.0
aF1.0
aF1.0
aF1.0
aF1.0
aF1.0
aF1.0
aF1.0
aF1.0
aF1.0
aF1.0
aF1.0
aF1.0
aF1.0
aF1.0
aF1.0
aF1.0
aF1.0
aF1.0
aF1.0
aF1.0
aF1.0
aF1.0
aF1.0
aF1.0
aF1.0
aF1.0
aF1.0
aF1.0
aF1.0
aF1.0
aF1.0
aF1.0
aF1.0
aF1.0
aF1.0
aF1.0
aF1.0
aF1.0
aF1.0
aF1.0
aF1.0
aF1.0
aF1.0
aF1.0
aF1.0
aF1.0
aF1.0
aF1.0
aF1.0
aF1.0
aF1.0
aF1.0
aF1.0
aF1.0
aF1.0
aF1.0
aF1.0
aF1.0
aF1.0
aF1.0
aF1.0
aF1.0
aF1.0
aF1.0
aF1.0
aF1.0
aF1.0
aF1.0
aF1.0
aF1.0
aF1.0
aF1.0
aF1.0
aF1.0
aF1.0
aF1.0
aF1.0
aF1.0
aF1.0
aF1.0
aF1.0
aF1.0
aF1.0
aF1.0
aF1.0
aF1.0
aF1.0
aF1.0
aF1.0
aF1.0
aF1.0
aF1.0
aF1.0
aF1.0
aF1.0
aF1.0
aF1.0
aF1.0
aF1.0
aF1.0
aF1.0
aF1.0
aF1.0
aF1.0
aF1.0
aF1.0
aF1.0
aF1.0
aF1.0
aF1.0
aF1.0
aF1.0
aF1.0
aF1.0
aF1.0
aF1.0
aF1.0
aF1.0
aF1.0
aF1.0
aF1.0
aF1.0
aF1.0
aF1.0
aF1.0
aF1.0
aF1.0
aF1.0
aF1.0
aF1.0
aF1.0
aF1.0
aF1.0
aF1.0
aF1.0
aF1.0
aF1.0
aF1.0
aF1.0
aF1.0
aF1.0
aF1.0
aF1.0
aF1.0
aF1.0
aF1.0
aF1.0
aF1.0
aF1.0
aF1.0
aF1.0
aF1.0
aF1.0
aF1.0
aF1.0
aF1.0
aF1.0
aF1.0
aF1.0
aF1.0
aF1.0
aF1.0
aF1.0
aF1.0
aF1.0
aF1.0
aF1.0
aF1.0
aF1.0
aF1.0
aF1.0
aF1.0
aF1.0
aF1.0
aF1.0
aF1.0
aF1.0
aF1.0
aF1.0
aF1.0
aF1.0
aF1.0
aF1.0
aF1.0
aF1.0
aF1.0
aF1.0
aF1.0
aF1.0
aF1.0
aF1.0
aF1.0
aF1.0
aF1.0
aF1.0
aF1.0
aF1.0
aF1.0
aF1.0
aF1.0
aF1.0
aF1.0
aF1.0
aF1.0
aF1.0
aF1.0
aF1.0
aF1.0
aF1.0
aF1.0
aF1.0
aF1.0
aF1.0
aF1.0
aF1.0
aF1.0
aF1.0
aF1.0
aF1.0
aF1.0
aF1.0
aF1.0
aF1.0
aF1.0
aF1.0
aF1.0
aF1.0
aF1.0
aF1.0
aF1.0
aF1.0
aF1.0
aF1.0
aF1.0
aF1.0
aF1.0
aF1.0
aF1.0
aF1.0
aF1.0
aF1.0
aF1.0
aF1.0
aF1.0
aF1.0
aF1.0
aF1.0
aF1.0
aF1.0
aF1.0
aF1.0
aF1.0
aF1.0
aF1.0
aF1.0
aF1.0
aF1.0
aF1.0
aF1.0
aF1.0
aF1.0
aF1.0
aF1.0
aF1.0
aF1.0
aF1.0
aF1.0
aF1.0
aF1.0
aF1.0
aF1.0
aF1.0
aF1.0
aF1.0
aF1.0
aF1.0
aF1.0
aF1.0
aF1.0
aF1.0
aF1.0
aF1.0
aF1.0
aF1.0
aF1.0
aF1.0
aF1.0
aF1.0
aF1.0
aF1.0
aF1.0
aF1.0
aF1.0
aF1.0
aF1.0
aF1.0
aF1.0
aF1.0
aF1.0
aF1.0
aF1.0
aF1.0
aF1.0
aF1.0
aF1.0
aF1.0
aF1.0
aF1.0
aF1.0
aF1.0
aF1.0
aF1.0
aF1.0
aF1.0
aF1.0
aF1.0
aF1.0
aF1.0
aF1.0
aF1.0
aF1.0
aF1.0
aF1.0
aF1.0
aF1.0
aF1.0
aF1.0
aF1.0
aF1.0
aF1.0
aF1.0
aF1.0
aF1.0
aF1.0
aF1.0
aF1.0
aF1.0
aF1.0
aF1.0
aF1.0
aF1.0
aF1.0
aF1.0
aF1.0
aF1.0
aF1.0
aF1.0
aF1.0
aF1.0
aF1.0
aF1.0
aF1.0
aF1.0
aF1.0
aF1.0
aF1.0
aF1.0
aF1.0
aF1.0
aF1.0
aF1.0
aF1.0
aF1.0
aF1.0
aF1.0
aF1.0
aF1.0
aF1.0
aF1.0
aF1.0
aF1.0
aF1.0
aF1.0
aF1.0
aF1.0
aF1.0
aF1.0
aF1.0
aF1.0
aF1.0
aF1.0
aF1.0
aF1.0
aF1.0
aF1.0
aF1.0
aF1.0
aF1.0
aF1.0
aF1.0
aF1.0
aF1.0
aF1.0
aF1.0
aF1.0
aF1.0
aF1.0
aF1.0
aF1.0
aF1.0
aF1.0
aF1.0
aF1.0
aF1.0
aF1.0
aF1.0
aF1.0
aF1.0
aF1.0
aF1.0
aF1.0
aF1.0
aF1.0
aF1.0
aF1.0
aF1.0
aF1.0
aF1.0
aF1.0
aF1.0
aF1.0
aF1.0
aF1.0
aF1.0
aF1.0
aF1.0
aF1.0
aF1.0
aF1.0
aF1.0
aF1.0
aF1.0
aF1.0
aF1.0
aF1.0
aF1.0
aF1.0
aF1.0
aF1.0
aF1.0
aF1.0
aF1.0
aF1.0
aF1.0
aF1.0
aF1.0
aF1.0
aF1.0
aF1.0
aF1.0
aF1.0
aF1.0
aF1.0
aF1.0
aF1.0
aF1.0
aF1.0
aF1.0
aF1.0
aF1.0
aF1.0
aF1.0
aF1.0
aF1.0
aF1.0
aF1.0
aF1.0
aF1.0
aF1.0
aF1.0
aF1.0
aF1.0
aF1.0
aF1.0
aF1.0
aF1.0
aF1.0
aF1.0
aF1.0
aF1.0
aF1.0
aF1.0
aF1.0
aF1.0
aF1.0
aF1.0
aF1.0
aF1.0
aF1.0
aF1.0
aF1.0
aF1.0
aF1.0
aF1.0
aF1.0
aF1.0
aF1.0
aF1.0
aF1.0
aF1.0
aF1.0
aF1.0
aF1.0
aF1.0
aF1.0
aF1.0
aF1.0
aF1.0
aF1.0
aF1.0
aF1.0
aF1.0
aF1.0
aF1.0
aF1.0
aF1.0
aF1.0
aF1.0
aF1.0
aF1.0
aF1.0
aF1.0
aF1.0
aF1.0
aF1.0
aF1.0
aF1.0
aF1.0
aF1.0
aF1.0
aF1.0
aF1.0
aF1.0
aF1.0
aF1.0
aF1.0
aF1.0
aF1.0
aF1.0
aF1.0
aF1.0
aF1.0
aF1.0
aF1.0
aF1.0
aF1.0
aF1.0
aF1.0
aF1.0
aF1.0
aF1.0
aF1.0
aF1.0
aF1.0
aF1.0
aF1.0
aF1.0
aF1.0
aF1.0
aF1.0
aF1.0
aF1.0
aF1.0
aF1.0
aF1.0
aF1.0
aF1.0
aF1.0
aF1.0
aF1.0
aF1.0
aF1.0
aF1.0
aF1.0
aF1.0
aF1.0
aF1.0
aF1.0
aF1.0
aF1.0
aF1.0
aF1.0
aF1.0
aF1.0
aF1.0
aF1.0
aF1.0
aF1.0
aF1.0
aF1.0
aF1.0
aF1.0
aF1.0
aF1.0
aF1.0
aF1.0
aF1.0
aF1.0
aF1.0
aF1.0
aF1.0
aF1.0
aF1.0
aF1.0
asg15
F-0.998
sg16
F1.0
sg17
(lp34
F-1.0
aF-0.998
aF-0.996
aF-0.994
aF-0.992
aF-0.99
aF-0.988
aF-0.986
aF-0.984
aF-0.982
aF-0.98
aF-0.978
aF-0.976
aF-0.974
aF-0.972
aF-0.97
aF-0.968
aF-0.966
aF-0.964
aF-0.962
aF-0.96
aF-0.958
aF-0.956
aF-0.954
aF-0.952
aF-0.95
aF-0.948
aF-0.946
aF-0.944
aF-0.942
aF-0.94
aF-0.938
aF-0.936
aF-0.934
aF-0.932
aF-0.93
aF-0.928
aF-0.926
aF-0.924
aF-0.922
aF-0.92
aF-0.918
aF-0.916
aF-0.914
aF-0.912
aF-0.91
aF-0.908
aF-0.906
aF-0.904
aF-0.902
aF-0.9
aF-0.898
aF-0.896
aF-0.894
aF-0.892
aF-0.89
aF-0.888
aF-0.886
aF-0.884
aF-0.882
aF-0.88
aF-0.878
aF-0.876
aF-0.874
aF-0.872
aF-0.87
aF-0.868
aF-0.866
aF-0.864
aF-0.862
aF-0.86
aF-0.858
aF-0.856
aF-0.854
aF-0.852
aF-0.85
aF-0.848
aF-0.846
aF-0.844
aF-0.842
aF-0.84
aF-0.838
aF-0.836
aF-0.834
aF-0.832
aF-0.83
aF-0.828
aF-0.826
aF-0.824
aF-0.822
aF-0.82
aF-0.818
aF-0.816
aF-0.814
aF-0.812
aF-0.81
aF-0.808
aF-0.806
aF-0.804
aF-0.802
aF-0.8
aF-0.798
aF-0.796
aF-0.794
aF-0.792
aF-0.79
aF-0.788
aF-0.786
aF-0.784
aF-0.782
aF-0.78
aF-0.778
aF-0.776
aF-0.774
aF-0.772
aF-0.77
aF-0.768
aF-0.766
aF-0.764
aF-0.762
aF-0.76
aF-0.758
aF-0.756
aF-0.754
aF-0.752
aF-0.75
aF-0.748
aF-0.746
aF-0.744
aF-0.742
aF-0.74
aF-0.738
aF-0.736
aF-0.734
aF-0.732
aF-0.73
aF-0.728
aF-0.726
aF-0.724
aF-0.722
aF-0.72
aF-0.718
aF-0.716
aF-0.714
aF-0.712
aF-0.71
aF-0.708
aF-0.706
aF-0.704
aF-0.702
aF-0.7
aF-0.698
aF-0.696
aF-0.694
aF-0.692
aF-0.69
aF-0.688
aF-0.686
aF-0.684
aF-0.682
aF-0.68
aF-0.678
aF-0.676
aF-0.674
aF-0.672
aF-0.67
aF-0.668
aF-0.666
aF-0.664
aF-0.662
aF-0.66
aF-0.658
aF-0.656
aF-0.654
aF-0.652
aF-0.65
aF-0.648
aF-0.646
aF-0.644
aF-0.642
aF-0.64
aF-0.638
aF-0.636
aF-0.634
aF-0.632
aF-0.63
aF-0.628
aF-0.626
aF-0.624
aF-0.622
aF-0.62
aF-0.618
aF-0.616
aF-0.614
aF-0.612
aF-0.61
aF-0.608
aF-0.606
aF-0.604
aF-0.602
aF-0.6
aF-0.598
aF-0.596
aF-0.594
aF-0.592
aF-0.59
aF-0.588
aF-0.586
aF-0.584
aF-0.582
aF-0.58
aF-0.578
aF-0.576
aF-0.574
aF-0.572
aF-0.57
aF-0.568
aF-0.566
aF-0.564
aF-0.562
aF-0.56
aF-0.558
aF-0.556
aF-0.554
aF-0.552
aF-0.55
aF-0.548
aF-0.546
aF-0.544
aF-0.542
aF-0.54
aF-0.538
aF-0.536
aF-0.534
aF-0.532
aF-0.53
aF-0.528
aF-0.526
aF-0.524
aF-0.522
aF-0.52
aF-0.518
aF-0.516
aF-0.514
aF-0.512
aF-0.51
aF-0.508
aF-0.506
aF-0.504
aF-0.502
aF-0.5
aF-0.498
aF-0.496
aF-0.494
aF-0.492
aF-0.49
aF-0.488
aF-0.486
aF-0.484
aF-0.482
aF-0.48
aF-0.478
aF-0.476
aF-0.474
aF-0.472
aF-0.47
aF-0.468
aF-0.466
aF-0.464
aF-0.462
aF-0.46
aF-0.458
aF-0.456
aF-0.454
aF-0.452
aF-0.45
aF-0.448
aF-0.446
aF-0.444
aF-0.442
aF-0.44
aF-0.438
aF-0.436
aF-0.434
aF-0.432
aF-0.43
aF-0.428
aF-0.426
aF-0.424
aF-0.422
aF-0.42
aF-0.418
aF-0.416
aF-0.414
aF-0.412
aF-0.41
aF-0.408
aF-0.406
aF-0.404
aF-0.402
aF-0.4
aF-0.398
aF-0.396
aF-0.394
aF-0.392
aF-0.39
aF-0.388
aF-0.386
aF-0.384
aF-0.382
aF-0.38
aF-0.378
aF-0.376
aF-0.374
aF-0.372
aF-0.37
aF-0.368
aF-0.366
aF-0.364
aF-0.362
aF-0.36
aF-0.358
aF-0.356
aF-0.354
aF-0.352
aF-0.35
aF-0.348
aF-0.346
aF-0.344
aF-0.342
aF-0.34
aF-0.338
aF-0.336
aF-0.334
aF-0.332
aF-0.33
aF-0.328
aF-0.326
aF-0.324
aF-0.322
aF-0.32
aF-0.318
aF-0.316
aF-0.314
aF-0.312
aF-0.31
aF-0.308
aF-0.306
aF-0.304
aF-0.302
aF-0.3
aF-0.298
aF-0.296
aF-0.294
aF-0.292
aF-0.29
aF-0.288
aF-0.286
aF-0.284
aF-0.282
aF-0.28
aF-0.278
aF-0.276
aF-0.274
aF-0.272
aF-0.27
aF-0.268
aF-0.266
aF-0.264
aF-0.262
aF-0.26
aF-0.258
aF-0.256
aF-0.254
aF-0.252
aF-0.25
aF-0.248
aF-0.246
aF-0.244
aF-0.242
aF-0.24
aF-0.238
aF-0.236
aF-0.234
aF-0.232
aF-0.23
aF-0.228
aF-0.226
aF-0.224
aF-0.222
aF-0.22
aF-0.218
aF-0.216
aF-0.214
aF-0.212
aF-0.21
aF-0.208
aF-0.206
aF-0.204
aF-0.202
aF-0.2
aF-0.198
aF-0.196
aF-0.194
aF-0.192
aF-0.19
aF-0.188
aF-0.186
aF-0.184
aF-0.182
aF-0.18
aF-0.178
aF-0.176
aF-0.174
aF-0.172
aF-0.17
aF-0.168
aF-0.166
aF-0.164
aF-0.162
aF-0.16
aF-0.158
aF-0.156
aF-0.154
aF-0.152
aF-0.15
aF-0.148
aF-0.146
aF-0.144
aF-0.142
aF-0.14
aF-0.138
aF-0.136
aF-0.134
aF-0.132
aF-0.13
aF-0.128
aF-0.126
aF-0.124
aF-0.122
aF-0.12
aF-0.118
aF-0.116
aF-0.114
aF-0.112
aF-0.11
aF-0.108
aF-0.106
aF-0.104
aF-0.102
aF-0.1
aF-0.098
aF-0.096
aF-0.094
aF-0.092
aF-0.09
aF-0.088
aF-0.086
aF-0.084
aF-0.082
aF-0.08
aF-0.078
aF-0.076
aF-0.074
aF-0.072
aF-0.07
aF-0.068
aF-0.066
aF-0.064
aF-0.062
aF-0.06
aF-0.058
aF-0.056
aF-0.054
aF-0.052
aF-0.05
aF-0.048
aF-0.046
aF-0.044
aF-0.042
aF-0.04
aF-0.038
aF-0.036
aF-0.034
aF-0.032
aF-0.03
aF-0.028
aF-0.026
aF-0.024
aF-0.022
aF-0.02
aF-0.018
aF-0.016
aF-0.014
aF-0.012
aF-0.01
aF-0.008
aF-0.006
aF-0.004
aF-0.002
aF0.0
aF0.002
aF0.004
aF0.006
aF0.008
aF0.01
aF0.012
aF0.014
aF0.016
aF0.018
aF0.02
aF0.022
aF0.024
aF0.026
aF0.028
aF0.03
aF0.032
aF0.034
aF0.036
aF0.038
aF0.04
aF0.042
aF0.044
aF0.046
aF0.048
aF0.05
aF0.052
aF0.054
aF0.056
aF0.058
aF0.06
aF0.062
aF0.064
aF0.066
aF0.068
aF0.07
aF0.072
aF0.074
aF0.076
aF0.078
aF0.08
aF0.082
aF0.084
aF0.086
aF0.088
aF0.09
aF0.092
aF0.094
aF0.096
aF0.098
aF0.1
aF0.102
aF0.104
aF0.106
aF0.108
aF0.11
aF0.112
aF0.114
aF0.116
aF0.118
aF0.12
aF0.122
aF0.124
aF0.126
aF0.128
aF0.13
aF0.132
aF0.134
aF0.136
aF0.138
aF0.14
aF0.142
aF0.144
aF0.146
aF0.148
aF0.15
aF0.152
aF0.154
aF0.156
aF0.158
aF0.16
aF0.162
aF0.164
aF0.166
aF0.168
aF0.17
aF0.172
aF0.174
aF0.176
aF0.178
aF0.18
aF0.182
aF0.184
aF0.186
aF0.188
aF0.19
aF0.192
aF0.194
aF0.196
aF0.198
aF0.2
aF0.202
aF0.204
aF0.206
aF0.208
aF0.21
aF0.212
aF0.214
aF0.216
aF0.218
aF0.22
aF0.222
aF0.224
aF0.226
aF0.228
aF0.23
aF0.232
aF0.234
aF0.236
aF0.238
aF0.24
aF0.242
aF0.244
aF0.246
aF0.248
aF0.25
aF0.252
aF0.254
aF0.256
aF0.258
aF0.26
aF0.262
aF0.264
aF0.266
aF0.268
aF0.27
aF0.272
aF0.274
aF0.276
aF0.278
aF0.28
aF0.282
aF0.284
aF0.286
aF0.288
aF0.29
aF0.292
aF0.294
aF0.296
aF0.298
aF0.3
aF0.302
aF0.304
aF0.306
aF0.308
aF0.31
aF0.312
aF0.314
aF0.316
aF0.318
aF0.32
aF0.322
aF0.324
aF0.326
aF0.328
aF0.33
aF0.332
aF0.334
aF0.336
aF0.338
aF0.34
aF0.342
aF0.344
aF0.346
aF0.348
aF0.35
aF0.352
aF0.354
aF0.356
aF0.358
aF0.36
aF0.362
aF0.364
aF0.366
aF0.368
aF0.37
aF0.372
aF0.374
aF0.376
aF0.378
aF0.38
aF0.382
aF0.384
aF0.386
aF0.388
aF0.39
aF0.392
aF0.394
aF0.396
aF0.398
aF0.4
aF0.402
aF0.404
aF0.406
aF0.408
aF0.41
aF0.412
aF0.414
aF0.416
aF0.418
aF0.42
aF0.422
aF0.424
aF0.426
aF0.428
aF0.43
aF0.432
aF0.434
aF0.436
aF0.438
aF0.44
aF0.442
aF0.444
aF0.446
aF0.448
aF0.45
aF0.452
aF0.454
aF0.456
aF0.458
aF0.46
aF0.462
aF0.464
aF0.466
aF0.468
aF0.47
aF0.472
aF0.474
aF0.476
aF0.478
aF0.48
aF0.482
aF0.484
aF0.486
aF0.488
aF0.49
aF0.492
aF0.494
aF0.496
aF0.498
aF0.5
aF0.502
aF0.504
aF0.506
aF0.508
aF0.51
aF0.512
aF0.514
aF0.516
aF0.518
aF0.52
aF0.522
aF0.524
aF0.526
aF0.528
aF0.53
aF0.532
aF0.534
aF0.536
aF0.538
aF0.54
aF0.542
aF0.544
aF0.546
aF0.548
aF0.55
aF0.552
aF0.554
aF0.556
aF0.558
aF0.56
aF0.562
aF0.564
aF0.566
aF0.568
aF0.57
aF0.572
aF0.574
aF0.576
aF0.578
aF0.58
aF0.582
aF0.584
aF0.586
aF0.588
aF0.59
aF0.592
aF0.594
aF0.596
aF0.598
aF0.6
aF0.602
aF0.604
aF0.606
aF0.608
aF0.61
aF0.612
aF0.614
aF0.616
aF0.618
aF0.62
aF0.622
aF0.624
aF0.626
aF0.628
aF0.63
aF0.632
aF0.634
aF0.636
aF0.638
aF0.64
aF0.642
aF0.644
aF0.646
aF0.648
aF0.65
aF0.652
aF0.654
aF0.656
aF0.658
aF0.66
aF0.662
aF0.664
aF0.666
aF0.668
aF0.67
aF0.672
aF0.674
aF0.676
aF0.678
aF0.68
aF0.682
aF0.684
aF0.686
aF0.688
aF0.69
aF0.692
aF0.694
aF0.696
aF0.698
aF0.7
aF0.702
aF0.704
aF0.706
aF0.708
aF0.71
aF0.712
aF0.714
aF0.716
aF0.718
aF0.72
aF0.722
aF0.724
aF0.726
aF0.728
aF0.73
aF0.732
aF0.734
aF0.736
aF0.738
aF0.74
aF0.742
aF0.744
aF0.746
aF0.748
aF0.75
aF0.752
aF0.754
aF0.756
aF0.758
aF0.76
aF0.762
aF0.764
aF0.766
aF0.768
aF0.77
aF0.772
aF0.774
aF0.776
aF0.778
aF0.78
aF0.782
aF0.784
aF0.786
aF0.788
aF0.79
aF0.792
aF0.794
aF0.796
aF0.798
aF0.8
aF0.802
aF0.804
aF0.806
aF0.808
aF0.81
aF0.812
aF0.814
aF0.816
aF0.818
aF0.82
aF0.822
aF0.824
aF0.826
aF0.828
aF0.83
aF0.832
aF0.834
aF0.836
aF0.838
aF0.84
aF0.842
aF0.844
aF0.846
aF0.848
aF0.85
aF0.852
aF0.854
aF0.856
aF0.858
aF0.86
aF0.862
aF0.864
aF0.866
aF0.868
aF0.87
aF0.872
aF0.874
aF0.876
aF0.878
aF0.88
aF0.882
aF0.884
aF0.886
aF0.888
aF0.89
aF0.892
aF0.894
aF0.896
aF0.898
aF0.9
aF0.902
aF0.904
aF0.906
aF0.908
aF0.91
aF0.912
aF0.914
aF0.916
aF0.918
aF0.92
aF0.922
aF0.924
aF0.926
aF0.928
aF0.93
aF0.932
aF0.934
aF0.936
aF0.938
aF0.94
aF0.942
aF0.944
aF0.946
aF0.948
aF0.95
aF0.952
aF0.954
aF0.956
aF0.958
aF0.96
aF0.962
aF0.964
aF0.966
aF0.968
aF0.97
aF0.972
aF0.974
aF0.976
aF0.978
aF0.98
aF0.982
aF0.984
aF0.986
aF0.988
aF0.99
aF0.992
aF0.994
aF0.996
asg19
I0
sg20
I1
sg21
(lp35
I1
aI1
aI1
aI1
aI1
aI1
aI1
aI1
aI1
aI1
aI1
aI1
aI1
aI1
aI1
aI1
aI1
aI1
aI1
aI1
aI1
aI1
aI1
aI1
aI1
aI1
aI1
aI1
aI1
aI1
aI1
aI1
aI1
aI1
aI1
aI1
aI1
aI1
aI1
aI1
aI1
aI1
aI1
aI1
aI1
aI1
aI1
aI1
aI1
aI1
aI1
aI1
aI1
aI1
aI1
aI1
aI1
aI1
aI1
aI1
aI1
aI1
aI1
aI1
aI1
aI1
aI1
aI1
aI1
aI1
aI1
aI1
aI1
aI1
aI1
aI1
aI1
aI1
aI1
aI1
aI1
aI1
aI1
aI1
aI1
aI1
aI1
aI1
aI1
aI1
aI1
aI1
aI1
aI1
aI1
aI1
aI1
aI1
aI1
aI1
aI1
aI1
aI1
aI1
aI1
aI1
aI1
aI1
aI1
aI1
aI1
aI1
aI1
aI1
aI1
aI1
aI1
aI1
aI1
aI1
aI1
aI1
aI1
aI1
aI1
aI1
aI1
aI1
aI1
aI1
aI1
aI1
aI1
aI1
aI1
aI1
aI1
aI1
aI1
aI1
aI1
aI1
aI1
aI1
aI1
aI1
aI1
aI1
aI1
aI1
aI1
aI1
aI1
aI1
aI1
aI1
aI1
aI1
aI1
aI1
aI1
aI1
aI1
aI1
aI1
aI1
aI1
aI1
aI1
aI1
aI1
aI1
aI1
aI1
aI1
aI1
aI1
aI1
aI1
aI1
aI1
aI1
aI1
aI1
aI1
aI1
aI1
aI1
aI1
aI1
aI1
aI1
aI1
aI1
aI1
aI1
aI1
aI1
aI1
aI1
aI1
aI1
aI1
aI1
aI1
aI1
aI1
aI1
aI1
aI1
aI1
aI1
aI1
aI1
aI1
aI1
aI1
aI1
aI1
aI1
aI1
aI1
aI1
aI1
aI1
aI1
aI1
aI1
aI1
aI1
aI1
aI1
aI1
aI1
aI1
aI1
aI1
aI1
aI1
aI1
aI1
aI1
aI1
aI1
aI1
aI1
aI1
aI1
aI1
aI1
aI1
aI1
aI1
aI1
aI1
aI1
aI1
aI1
aI1
aI1
aI1
aI1
aI1
aI1
aI1
aI1
aI1
aI1
aI1
aI1
aI1
aI1
aI1
aI1
aI1
aI1
aI1
aI1
aI1
aI1
aI1
aI1
aI1
aI1
aI1
aI1
aI1
aI1
aI1
aI1
aI1
aI1
aI1
aI1
aI1
aI1
aI1
aI1
aI1
aI1
aI1
aI1
aI1
aI1
aI1
aI1
aI1
aI1
aI1
aI1
aI1
aI1
aI1
aI1
aI1
aI1
aI1
aI1
aI1
aI1
aI1
aI1
aI1
aI1
aI1
aI1
aI1
aI1
aI1
aI1
aI1
aI1
aI1
aI1
aI1
aI1
aI1
aI1
aI1
aI1
aI1
aI1
aI1
aI1
aI1
aI1
aI1
aI1
aI1
aI1
aI1
aI1
aI1
aI1
aI1
aI1
aI1
aI1
aI1
aI1
aI1
aI1
aI1
aI1
aI1
aI1
aI1
aI1
aI1
aI1
aI1
aI1
aI1
aI1
aI1
aI1
aI1
aI1
aI1
aI1
aI1
aI1
aI1
aI1
aI1
aI1
aI1
aI1
aI1
aI1
aI1
aI1
aI1
aI1
aI1
aI1
aI1
aI1
aI1
aI1
aI1
aI1
aI1
aI1
aI1
aI1
aI1
aI1
aI1
aI1
aI1
aI1
aI1
aI1
aI1
aI1
aI1
aI1
aI1
aI1
aI1
aI1
aI1
aI1
aI1
aI1
aI1
aI1
aI1
aI1
aI1
aI1
aI1
aI1
aI1
aI1
aI1
aI1
aI1
aI1
aI1
aI1
aI1
aI1
aI1
aI1
aI1
aI1
aI1
aI1
aI1
aI1
aI1
aI1
aI1
aI1
aI1
aI1
aI1
aI1
aI1
aI1
aI1
aI1
aI1
aI1
aI1
aI1
aI1
aI1
aI1
aI1
aI1
aI1
aI1
aI1
aI1
aI1
aI1
aI1
aI1
aI1
aI1
aI1
aI1
aI1
aI1
aI1
aI1
aI1
aI1
aI1
aI1
aI1
aI1
aI1
aI1
aI1
aI1
aI1
aI1
aI1
aI1
aI1
aI1
aI1
aI1
aI1
aI1
aI1
aI1
aI1
aI1
aI1
aI1
aI1
aI1
aI1
aI1
aI1
aI1
aI1
aI1
aI1
aI1
aI1
aI1
aI1
aI1
aI1
aI1
aI1
aI1
aI1
aI1
aI1
aI1
aI1
aI1
aI1
aI1
aI1
aI1
aI1
aI1
aI1
aI1
aI1
aI1
aI1
aI1
aI1
aI1
aI1
aI1
aI1
aI1
aI1
aI1
aI1
aI1
aI1
aI1
aI1
aI1
aI1
aI1
aI1
aI1
aI1
aI1
aI1
aI1
aI1
aI1
aI1
aI1
aI1
aI1
aI1
aI1
aI1
aI1
aI1
aI1
aI1
aI1
aI1
aI1
aI1
aI1
aI1
aI1
aI1
aI1
aI1
aI1
aI1
aI1
aI1
aI1
aI1
aI1
aI1
aI1
aI1
aI1
aI1
aI1
aI1
aI1
aI1
aI1
aI1
aI1
aI1
aI1
aI1
aI1
aI1
aI1
aI1
aI1
aI1
aI1
aI1
aI1
aI1
aI1
aI1
aI1
aI1
aI1
aI1
aI1
aI1
aI1
aI1
aI1
aI1
aI1
aI1
aI1
aI1
aI1
aI1
aI1
aI1
aI1
aI1
aI1
aI1
aI1
aI1
aI1
aI1
aI1
aI1
aI1
aI1
aI1
aI1
aI1
aI1
aI1
aI1
aI1
aI1
aI1
aI1
aI1
aI1
aI1
aI1
aI1
aI1
aI1
aI1
aI1
aI1
aI1
aI1
aI1
aI1
aI1
aI1
aI1
aI1
aI1
aI1
aI1
aI1
aI1
aI1
aI1
aI1
aI1
aI1
aI1
aI1
aI1
aI1
aI1
aI1
aI1
aI1
aI1
aI1
aI1
aI1
aI1
aI1
aI1
aI1
aI1
aI1
aI1
aI1
aI1
aI1
aI1
aI1
aI1
aI1
aI1
aI1
aI1
aI1
aI1
aI1
aI1
aI1
aI1
aI1
aI1
aI1
aI1
aI1
aI1
aI1
aI1
aI1
aI1
aI1
aI1
aI1
aI1
aI1
aI1
aI1
aI1
aI1
aI1
aI1
aI1
aI1
aI1
aI1
aI1
aI1
aI1
aI1
aI1
aI1
aI1
aI1
aI1
aI1
aI1
aI1
aI1
aI1
aI1
aI1
aI1
aI1
aI1
aI1
aI1
aI1
aI1
aI1
aI1
aI1
aI1
aI1
aI1
aI1
aI1
aI1
aI1
aI1
aI1
aI1
aI1
aI1
aI1
aI1
aI1
aI1
aI1
aI1
aI1
aI1
aI1
aI1
aI1
aI1
aI1
aI1
aI1
aI1
aI1
aI1
aI1
aI1
aI1
aI1
aI1
aI1
aI1
aI1
aI1
aI1
aI1
aI1
aI1
aI1
aI1
aI1
aI1
aI1
aI1
aI1
aI1
aI1
aI1
aI1
aI1
aI1
aI1
aI1
aI1
aI1
aI1
aI1
aI1
aI1
aI1
aI1
aI1
aI1
aI1
aI1
aI1
aI1
aI1
aI1
aI1
aI1
aI1
aI1
aI1
aI1
aI1
aI1
aI1
aI1
aI1
aI1
aI1
aI1
aI1
aI1
aI1
aI1
aI1
aI1
aI1
aI1
aI1
aI1
aI1
aI1
aI1
aI1
aI1
aI1
aI1
aI1
aI1
aI1
aI1
aI1
aI1
aI1
aI1
aI1
aI1
aI1
aI1
aI1
aI1
aI1
aI1
aI1
aI1
aI1
aI1
aI1
aI1
aI1
aI1
aI1
aI1
aI1
aI1
aI1
aI1
aI1
aI1
aI1
aI1
aI1
aI1
aI1
aI1
aI1
aI1
aI1
aI1
aI1
aI1
aI1
aI1
aI1
aI1
aI1
aI1
aI1
aI1
aI1
aI1
aI1
aI1
aI1
aI1
aI1
aI1
aI1
aI1
aI1
aI1
aI1
aI1
aI1
aI1
aI1
aI1
aI1
aI1
aI1
aI1
aI1
aI1
aI1
aI1
aI1
aI1
aI1
aI1
aI1
aI1
aI1
aI1
aI1
aI1
aI1
aI1
aI1
aI1
aI1
aI1
aI1
aI1
aI1
aI1
aI1
aI1
aI1
aI1
aI1
aI1
aI1
aI1
aI1
aI1
aI1
aI1
asg23
(lp36
I1
aI0
aI0
aI0
aI0
aI0
aI0
aI0
aI0
aI0
aI0
aI0
aI0
aI0
aI0
aI0
aI0
aI0
aI0
aI0
aI0
aI0
aI0
aI0
aI0
aI0
aI0
aI0
aI0
aI0
aI0
aI0
aI0
aI0
aI0
aI0
aI0
aI0
aI0
aI0
aI0
aI0
aI0
aI0
aI0
aI0
aI0
aI0
aI0
aI0
aI0
aI0
aI0
aI0
aI0
aI0
aI0
aI0
aI0
aI0
aI0
aI0
aI0
aI0
aI0
aI0
aI0
aI0
aI0
aI0
aI0
aI0
aI0
aI0
aI0
aI0
aI0
aI0
aI0
aI0
aI0
aI0
aI0
aI0
aI0
aI0
aI0
aI0
aI0
aI0
aI0
aI0
aI0
aI0
aI0
aI0
aI0
aI0
aI0
aI0
aI0
aI0
aI0
aI0
aI0
aI0
aI0
aI0
aI0
aI0
aI0
aI0
aI0
aI0
aI0
aI0
aI0
aI0
aI0
aI0
aI0
aI0
aI0
aI0
aI0
aI0
aI0
aI0
aI0
aI0
aI0
aI0
aI0
aI0
aI0
aI0
aI0
aI0
aI0
aI0
aI0
aI0
aI0
aI0
aI0
aI0
aI0
aI0
aI0
aI0
aI0
aI0
aI0
aI0
aI0
aI0
aI0
aI0
aI0
aI0
aI0
aI0
aI0
aI0
aI0
aI0
aI0
aI0
aI0
aI0
aI0
aI0
aI0
aI0
aI0
aI0
aI0
aI0
aI0
aI0
aI0
aI0
aI0
aI0
aI0
aI0
aI0
aI0
aI0
aI0
aI0
aI0
aI0
aI0
aI0
aI0
aI0
aI0
aI0
aI0
aI0
aI0
aI0
aI0
aI0
aI0
aI0
aI0
aI0
aI0
aI0
aI0
aI0
aI0
aI0
aI0
aI0
aI0
aI0
aI0
aI0
aI0
aI0
aI0
aI0
aI0
aI0
aI0
aI0
aI0
aI0
aI0
aI0
aI0
aI0
aI0
aI0
aI0
aI0
aI0
aI0
aI0
aI0
aI0
aI0
aI0
aI0
aI0
aI0
aI0
aI0
aI0
aI0
aI0
aI0
aI0
aI0
aI0
aI0
aI0
aI0
aI0
aI0
aI0
aI0
aI0
aI0
aI0
aI0
aI0
aI0
aI0
aI0
aI0
aI0
aI0
aI0
aI0
aI0
aI0
aI0
aI0
aI0
aI0
aI0
aI0
aI0
aI0
aI0
aI0
aI0
aI0
aI0
aI0
aI0
aI0
aI0
aI0
aI0
aI0
aI0
aI0
aI0
aI0
aI0
aI0
aI0
aI0
aI0
aI0
aI0
aI0
aI0
aI0
aI0
aI0
aI0
aI0
aI0
aI0
aI0
aI0
aI0
aI0
aI0
aI0
aI0
aI0
aI0
aI0
aI0
aI0
aI0
aI0
aI0
aI0
aI0
aI0
aI0
aI0
aI0
aI0
aI0
aI0
aI0
aI0
aI0
aI0
aI0
aI0
aI0
aI0
aI0
aI0
aI0
aI0
aI0
aI0
aI0
aI0
aI0
aI0
aI0
aI0
aI0
aI0
aI0
aI0
aI0
aI0
aI0
aI0
aI0
aI0
aI0
aI0
aI0
aI0
aI0
aI0
aI0
aI0
aI0
aI0
aI0
aI0
aI0
aI0
aI0
aI0
aI0
aI0
aI0
aI0
aI0
aI0
aI0
aI0
aI0
aI0
aI0
aI0
aI0
aI0
aI0
aI0
aI0
aI0
aI0
aI0
aI0
aI0
aI0
aI0
aI0
aI0
aI0
aI0
aI0
aI0
aI0
aI0
aI0
aI0
aI0
aI0
aI0
aI0
aI0
aI0
aI0
aI0
aI0
aI0
aI0
aI0
aI0
aI0
aI0
aI0
aI0
aI0
aI0
aI0
aI0
aI0
aI0
aI0
aI0
aI0
aI0
aI0
aI0
aI0
aI0
aI0
aI0
aI0
aI0
aI0
aI0
aI0
aI0
aI0
aI0
aI0
aI0
aI0
aI0
aI0
aI0
aI0
aI0
aI0
aI0
aI0
aI0
aI0
aI0
aI0
aI0
aI0
aI0
aI0
aI0
aI0
aI0
aI0
aI0
aI0
aI0
aI0
aI0
aI0
aI0
aI0
aI0
aI0
aI0
aI0
aI0
aI0
aI0
aI0
aI0
aI0
aI0
aI0
aI0
aI0
aI0
aI0
aI0
aI0
aI0
aI0
aI0
aI0
aI0
aI0
aI0
aI0
aI0
aI0
aI0
aI0
aI0
aI0
aI0
aI0
aI0
aI0
aI0
aI0
aI0
aI0
aI0
aI0
aI0
aI0
aI0
aI0
aI0
aI0
aI0
aI0
aI0
aI0
aI0
aI0
aI0
aI0
aI0
aI0
aI0
aI0
aI0
aI0
aI0
aI0
aI0
aI0
aI0
aI0
aI0
aI0
aI0
aI0
aI0
aI0
aI0
aI0
aI0
aI0
aI0
aI0
aI0
aI0
aI0
aI0
aI0
aI0
aI0
aI0
aI0
aI0
aI0
aI0
aI0
aI0
aI0
aI0
aI0
aI0
aI0
aI0
aI0
aI0
aI0
aI0
aI0
aI0
aI0
aI0
aI0
aI0
aI0
aI0
aI0
aI0
aI0
aI0
aI0
aI0
aI0
aI0
aI0
aI0
aI0
aI0
aI0
aI0
aI0
aI0
aI0
aI0
aI0
aI0
aI0
aI0
aI0
aI0
aI0
aI0
aI0
aI0
aI0
aI0
aI0
aI0
aI0
aI0
aI0
aI0
aI0
aI0
aI0
aI0
aI0
aI0
aI0
aI0
aI0
aI0
aI0
aI0
aI0
aI0
aI0
aI0
aI0
aI0
aI0
aI0
aI0
aI0
aI0
aI0
aI0
aI0
aI0
aI0
aI0
aI0
aI0
aI0
aI0
aI0
aI0
aI0
aI0
aI0
aI0
aI0
aI0
aI0
aI0
aI0
aI0
aI0
aI0
aI0
aI0
aI0
aI0
aI0
aI0
aI0
aI0
aI0
aI0
aI0
aI0
aI0
aI0
aI0
aI0
aI0
aI0
aI0
aI0
aI0
aI0
aI0
aI0
aI0
aI0
aI0
aI0
aI0
aI0
aI0
aI0
aI0
aI0
aI0
aI0
aI0
aI0
aI0
aI0
aI0
aI0
aI0
aI0
aI0
aI0
aI0
aI0
aI0
aI0
aI0
aI0
aI0
aI0
aI0
aI0
aI0
aI0
aI0
aI0
aI0
aI0
aI0
aI0
aI0
aI0
aI0
aI0
aI0
aI0
aI0
aI0
aI0
aI0
aI0
aI0
aI0
aI0
aI0
aI0
aI0
aI0
aI0
aI0
aI0
aI0
aI0
aI0
aI0
aI0
aI0
aI0
aI0
aI0
aI0
aI0
aI0
aI0
aI0
aI0
aI0
aI0
aI0
aI0
aI0
aI0
aI0
aI0
aI0
aI0
aI0
aI0
aI0
aI0
aI0
aI0
aI0
aI0
aI0
aI0
aI0
aI0
aI0
aI0
aI0
aI0
aI0
aI0
aI0
aI0
aI0
aI0
aI0
aI0
aI0
aI0
aI0
aI0
aI0
aI0
aI0
aI0
aI0
aI0
aI0
aI0
aI0
aI0
aI0
aI0
aI0
aI0
aI0
aI0
aI0
aI0
aI0
aI0
aI0
aI0
aI0
aI0
aI0
aI0
aI0
aI0
aI0
aI0
aI0
aI0
aI0
aI0
aI0
aI0
aI0
aI0
aI0
aI0
aI0
aI0
aI0
aI0
aI0
aI0
aI0
aI0
aI0
aI0
aI0
aI0
aI0
aI0
aI0
aI0
aI0
aI0
aI0
aI0
aI0
aI0
aI0
aI0
aI0
aI0
aI0
aI0
aI0
aI0
aI0
aI0
aI0
aI0
aI0
aI0
aI0
aI0
aI0
aI0
aI0
aI0
aI0
aI0
aI0
aI0
aI0
aI0
aI0
aI0
aI0
aI0
aI0
aI0
aI0
aI0
aI0
aI0
aI0
aI0
aI0
aI0
aI0
aI0
aI0
aI0
aI0
aI0
aI0
aI0
aI0
aI0
aI0
aI0
aI0
aI0
aI0
aI0
aI0
aI0
aI0
aI0
aI0
aI0
aI0
aI0
aI0
aI0
aI0
aI0
aI0
aI0
aI0
aI0
aI0
aI0
aI0
aI0
aI0
aI0
aI0
aI0
aI0
aI0
aI0
aI0
aI0
aI0
aI0
aI0
aI0
aI0
aI0
aI0
aI0
aI0
aI0
aI0
aI0
aI0
aI0
aI0
aI0
aI0
aI0
aI0
aI0
aI0
aI0
aI0
asbsS'nNodes'
p37
(lp38
I4
aI3
aI1
asS'w'
p39
(lp40
(lp41
(lp42
F-0.1262392936366618
aF0.40878913181774607
aF-0.13051476342028742
aF-2.5112498097563694
aa(lp43
F0.029526009975677
aF1.2994198373829262
aF-0.9855768584042617
aF-2.002549479458847
aa(lp44
F2.0529507051976634
aF2.00168571976116
aF2.931451055913569
aF2.4865215046286413
aaa(lp45
(lp46
F0.11418883467632826
aF20.115184239472512
aF0.032244830494667816
aaasS'dataTrain'
p47
(idefines
DataTrain
p48
(dp49
S'sp_tst'
p50
(lp51
F0.0
aF0.0
aF0.0
aF0.0
aF0.0
aF0.0
aF0.0
aF0.0
aF0.0
aF0.0
aF0.0
aF0.0
aF0.0
aF0.0
aF0.0
aF0.0
aF0.0
aF0.0
aF0.0
aF0.0
aF0.0
aF0.0
aF0.0
aF0.0
aF0.0
aF0.0
aF0.0
aF0.0
aF0.0
aF0.0
aF0.0
aF0.0
aF0.0
aF0.0
aF0.0
aF0.0
aF0.0
aF0.0
aF0.0
aF0.0
aF0.0
aF0.0
aF0.0
aF0.0
aF0.0
aF0.0
aF0.0
aF0.0
aF0.0
aF0.0
aF0.0
aF0.0
aF0.0
aF0.0
aF0.0
aF0.0
aF0.0
asS'stop_sp'
p52
(lp53
I00
aI00
aI00
aI00
aI00
aI00
aI00
aI00
aI00
aI00
aI00
aI00
aI00
aI00
aI00
aI00
aI00
aI00
aI00
aI00
aI00
aI00
aI00
aI00
aI00
aI00
aI00
aI00
aI00
aI00
aI00
aI00
aI00
aI00
aI00
aI00
aI00
aI00
aI00
aI00
aI00
aI00
aI00
aI00
aI00
aI00
aI00
aI00
aI00
aI00
aI01
aI01
aI01
aI01
aI01
aI01
aI01
asS'sp_val'
p54
(lp55
F1.0
aF1.0
aF1.0
aF1.0
aF1.0
aF1.0
aF1.0
aF1.0
aF1.0
aF1.0
aF1.0
aF1.0
aF1.0
aF1.0
aF1.0
aF1.0
aF1.0
aF1.0
aF1.0
aF1.0
aF1.0
aF1.0
aF1.0
aF1.0
aF1.0
aF1.0
aF1.0
aF1.0
aF1.0
aF1.0
aF1.0
aF1.0
aF1.0
aF1.0
aF1.0
aF1.0
aF1.0
aF1.0
aF1.0
aF1.0
aF1.0
aF1.0
aF1.0
aF1.0
aF1.0
aF1.0
aF1.0
aF1.0
aF1.0
aF1.0
aF1.0
aF1.0
aF1.0
aF1.0
aF1.0
aF1.0
aF1.0
asS'is_best_sp'
p56
(lp57
I01
aI00
aI00
aI00
aI00
aI00
aI00
aI00
aI00
aI00
aI00
aI00
aI00
aI00
aI00
aI00
aI00
aI00
aI00
aI00
aI00
aI00
aI00
aI00
aI00
aI00
aI00
aI00
aI00
aI00
aI00
aI00
aI00
aI00
aI00
aI00
aI00
aI00
aI00
aI00
aI00
aI00
aI00
aI00
aI00
aI00
aI00
aI00
aI00
aI00
aI00
aI00
aI00
aI00
aI00
aI00
aI00
asS'mse_tst'
p58
(lp59
F0.0
aF0.0
aF0.0
aF0.0
aF0.0
aF0.0
aF0.0
aF0.0
aF0.0
aF0.0
aF0.0
aF0.0
aF0.0
aF0.0
aF0.0
aF0.0
aF0.0
aF0.0
aF0.0
aF0.0
aF0.0
aF0.0
aF0.0
aF0.0
aF0.0
aF0.0
aF0.0
aF0.0
aF0.0
aF0.0
aF0.0
aF0.0
aF0.0
aF0.0
aF0.0
aF0.0
aF0.0
aF0.0
aF0.0
aF0.0
aF0.0
aF0.0
aF0.0
aF0.0
aF0.0
aF0.0
aF0.0
aF0.0
aF0.0
aF0.0
aF0.0
aF0.0
aF0.0
aF0.0
aF0.0
aF0.0
aF0.0
asS'num_fails_sp'
p60
(lp61
sS'epoch'
p62
(lp63
I0
aI1
aI2
aI3
aI4
aI5
aI6
aI7
aI8
aI9
aI10
aI11
aI12
aI13
aI14
aI15
aI16
aI17
aI18
aI19
aI20
aI21
aI22
aI23
aI24
aI25
aI26
aI27
aI28
aI29
aI30
aI31
aI32
aI33
aI34
aI35
aI36
aI37
aI38
aI39
aI40
aI41
aI42
aI43
aI44
aI45
aI46
aI47
aI48
aI49
aI50
aI51
aI52
aI53
aI54
aI55
aI56
asS'mse_val'
p64
(lp65
F1.0948728713655211
aF0.740405175416161
aF0.5378376236201458
aF0.3889167213387176
aF0.26230964965432424
aF0.16766032973997086
aF0.09885913973433702
aF0.05307999779045495
aF0.026083183534177008
aF0.0115621956072119
aF0.004586089018277605
aF0.00161867411735775
aF0.0005044369144394289
aF0.0001376204018548594
aF3.245481550616987e-05
aF6.189213503837403e-06
aF1.0180248561172448e-06
aF2.7889489925513306e-07
aF2.8897862254608106e-08
aF3.3674569480475805e-09
aF3.128574639390023e-10
aF2.2330306266704334e-11
aF1.1758217249043737e-12
aF5.847414452453327e-14
aF2.0254404236763943e-15
aF5.603118759300351e-17
aF7.656559698918051e-19
aF6.103335619369351e-21
aF3.230936017124005e-23
aF9.425708038929478e-26
aF1.388426008068091e-28
aF1.0014835710813626e-31
aF1.0014835710813626e-31
aF1.0014835710813626e-31
aF1.0014835710813626e-31
aF1.0014835710813626e-31
aF1.0014835710813626e-31
aF1.0014835710813626e-31
aF1.0014835710813626e-31
aF1.0014835710813626e-31
aF1.0014835710813626e-31
aF1.0014835710813626e-31
aF1.0014835710813626e-31
aF1.0014835710813626e-31
aF1.0014835710813626e-31
aF1.0014835710813626e-31
aF1.0014835710813626e-31
aF1.0014835710813626e-31
aF1.0014835710813626e-31
aF1.0014835710813626e-31
aF1.0014835710813626e-31
aF1.0014835710813626e-31
aF1.0014835710813626e-31
aF1.0014835710813626e-31
aF1.0014835710813626e-31
aF1.0014835710813626e-31
aF1.0014835710813626e-31
asS'mse_trn'
p66
(lp67
F1.521688221042056
aF1.0931351855964786
aF0.7342458088974891
aF0.5320656011755404
aF0.38151615718290016
aF0.254757696963487
aF0.16054858512817122
aF0.09296244861811602
aF0.04904921321696756
aF0.023533390566649694
aF0.010128538151740361
aF0.0038803278474237183
aF0.001313603551189035
aF0.0003896160415472735
aF0.00010027883799942836
aF2.2127317530821772e-05
aF4.010818755005551e-06
aF6.715935597667512e-07
aF8.588814617687329e-08
aF9.432279786790959e-09
aF8.511748086918839e-10
aF6.03820670527899e-11
aF3.2891511327613313e-12
aF1.3416276359024372e-13
aF3.947470373312637e-15
aF8.172763766446729e-17
aF1.1495001103411323e-18
aF1.0359201703881086e-20
aF5.778628850500667e-23
aF1.8830389195862817e-25
aF3.38692088410929e-28
aF3.0609446582794467e-31
aF0.0
aF0.0
aF0.0
aF0.0
aF0.0
aF0.0
aF0.0
aF0.0
aF0.0
aF0.0
aF0.0
aF0.0
aF0.0
aF0.0
aF0.0
aF0.0
aF0.0
aF0.0
aF0.0
aF0.0
aF0.0
aF0.0
aF0.0
aF0.0
aF0.0
asS'is_best_mse'
p68
(lp69
I01
aI01
aI01
aI01
aI01
aI01
aI01
aI01
aI01
aI01
aI01
aI01
aI01
aI01
aI01
aI01
aI01
aI01
aI01
aI01
aI01
aI01
aI01
aI01
aI01
aI01
aI01
aI01
aI01
aI01
aI01
aI01
aI00
aI00
aI00
aI00
aI00
aI00
aI00
aI00
aI00
aI00
aI00
aI00
aI00
aI00
aI00
aI00
aI00
aI00
aI00
aI00
aI00
aI00
aI00
aI00
aI00
asS'stop_mse'
p70
(lp71
I00
aI00
aI00
aI00
aI00
aI00
aI00
aI00
aI00
aI00
aI00
aI00
aI00
aI00
aI00
aI00
aI00
aI00
aI00
aI00
aI00
aI00
aI00
aI00
aI00
aI00
aI00
aI00
aI00
aI00
aI00
aI00
aI00
aI00
aI00
aI00
aI00
aI00
aI00
aI00
aI00
aI00
aI00
aI00
aI00
aI00
aI00
aI00
aI00
aI00
aI00
aI00
aI00
aI00
aI00
aI00
aI01
asS'num_fails_mse'
p72
(lp73
sbsS'numberOfLayers'
p74
I3
sb.